(lp1
(lp2
I0
aI0
aI0
aI0
aI0
aI0
aI0
aI0
aI0
aI0
aI0
aI0
aI0
aI0
aI0
aa(lp3
I1
aI1
aI1
aI1
aI1
aI1
aI1
aI1
aI1
aI1
aI1
aI1
aI1
aI1
aI1
aa(lp4
I2
aI2
aI2
aI2
aI2
aI2
aI2
aI2
aI2
aI2
aI2
aI2
aI2
aI2
aI2
aa(lp5
I2
aI0
aI1
aI2
aI2
aI2
aI1
aI1
aI0
aI1
aI0
aI1
aI1
aI0
aI2
aa(lp6
I0
aI1
aI1
aI2
aI1
aI2
aI0
aI2
aI1
aI1
aI1
aI1
aI1
aI1
aI0
aa(lp7
I2
aI0
aI2
aI1
aI1
aI2
aI2
aI0
aI0
aI0
aI1
aI0
aI1
aI0
aI1
aa(lp8
I2
aI1
aI1
aI2
aI2
aI1
aI1
aI2
aI0
aI2
aI0
aI2
aI0
aI0
aI0
aa(lp9
I1
aI2
aI0
aI0
aI0
aI2
aI1
aI2
aI1
aI1
aI0
aI0
aI0
aI2
aI1
aa(lp10
I2
aI0
aI0
aI2
aI0
aI2
aI2
aI1
aI1
aI1
aI2
aI0
aI1
aI1
aI2
aa(lp11
I1
aI0
aI0
aI0
aI0
aI1
aI1
aI1
aI1
aI2
aI0
aI0
aI2
aI0
aI2
aa(lp12
I0
aI2
aI0
aI2
aI2
aI1
aI1
aI2
aI2
aI1
aI2
aI2
aI1
aI2
aI1
aa(lp13
I1
aI0
aI1
aI2
aI2
aI2
aI1
aI0
aI2
aI0
aI0
aI2
aI1
aI2
aI2
aa(lp14
I2
aI0
aI2
aI0
aI0
aI0
aI1
aI1
aI0
aI0
aI0
aI0
aI0
aI0
aI1
aa(lp15
I1
aI1
aI2
aI0
aI2
aI0
aI2
aI2
aI2
aI1
aI2
aI0
aI0
aI0
aI0
aa(lp16
I2
aI1
aI0
aI2
aI2
aI1
aI2
aI1
aI1
aI1
aI2
aI2
aI1
aI1
aI0
aa(lp17
I0
aI1
aI1
aI0
aI1
aI1
aI0
aI0
aI2
aI1
aI2
aI0
aI2
aI0
aI0
aa(lp18
I0
aI1
aI2
aI0
aI1
aI0
aI0
aI1
aI1
aI1
aI1
aI2
aI1
aI0
aI0
aa(lp19
I2
aI2
aI2
aI0
aI1
aI1
aI1
aI2
aI0
aI0
aI1
aI0
aI2
aI2
aI2
aa(lp20
I0
aI0
aI1
aI2
aI2
aI2
aI0
aI1
aI1
aI1
aI0
aI1
aI1
aI1
aI2
aa(lp21
I0
aI0
aI2
aI2
aI1
aI2
aI2
aI0
aI2
aI1
aI2
aI0
aI1
aI0
aI2
aa(lp22
I0
aI0
aI2
aI1
aI2
aI0
aI2
aI0
aI2
aI0
aI2
aI2
aI1
aI0
aI1
aa(lp23
I2
aI0
aI2
aI1
aI2
aI2
aI1
aI0
aI0
aI2
aI2
aI1
aI0
aI1
aI2
aa(lp24
I2
aI0
aI0
aI1
aI0
aI0
aI2
aI0
aI0
aI1
aI0
aI1
aI2
aI0
aI0
aa(lp25
I1
aI0
aI2
aI2
aI0
aI0
aI2
aI1
aI2
aI1
aI2
aI0
aI1
aI0
aI2
aa(lp26
I0
aI2
aI0
aI1
aI0
aI1
aI2
aI0
aI1
aI1
aI2
aI0
aI1
aI0
aI2
aa(lp27
I2
aI0
aI2
aI2
aI0
aI0
aI2
aI0
aI1
aI0
aI0
aI2
aI0
aI2
aI0
aa(lp28
I1
aI2
aI0
aI2
aI2
aI0
aI0
aI0
aI0
aI2
aI0
aI0
aI0
aI1
aI2
aa(lp29
I2
aI0
aI1
aI1
aI1
aI0
aI1
aI0
aI0
aI0
aI2
aI0
aI0
aI0
aI1
aa(lp30
I0
aI2
aI2
aI2
aI2
aI0
aI2
aI0
aI1
aI2
aI0
aI1
aI1
aI0
aI1
aa(lp31
I0
aI2
aI2
aI1
aI0
aI0
aI1
aI2
aI2
aI2
aI2
aI1
aI1
aI1
aI0
aa(lp32
I0
aI1
aI1
aI0
aI1
aI0
aI2
aI0
aI1
aI0
aI1
aI0
aI1
aI0
aI1
aa(lp33
I0
aI1
aI1
aI0
aI0
aI0
aI2
aI0
aI0
aI0
aI1
aI0
aI2
aI1
aI2
aa(lp34
I0
aI1
aI2
aI1
aI2
aI2
aI2
aI1
aI1
aI0
aI2
aI0
aI2
aI0
aI2
aa(lp35
I1
aI1
aI1
aI0
aI1
aI1
aI2
aI1
aI0
aI1
aI1
aI1
aI2
aI2
aI1
aa(lp36
I1
aI1
aI1
aI2
aI0
aI1
aI2
aI0
aI0
aI2
aI2
aI2
aI0
aI1
aI1
aa(lp37
I0
aI0
aI1
aI2
aI2
aI2
aI0
aI1
aI1
aI2
aI0
aI1
aI2
aI2
aI0
aa(lp38
I1
aI0
aI0
aI2
aI1
aI0
aI2
aI2
aI1
aI1
aI0
aI2
aI2
aI2
aI1
aa(lp39
I2
aI0
aI1
aI2
aI2
aI0
aI2
aI1
aI1
aI1
aI0
aI0
aI0
aI2
aI0
aa(lp40
I0
aI0
aI1
aI1
aI2
aI0
aI2
aI2
aI1
aI0
aI2
aI2
aI0
aI0
aI2
aa(lp41
I1
aI0
aI0
aI1
aI1
aI1
aI1
aI0
aI0
aI2
aI0
aI0
aI0
aI2
aI2
aa(lp42
I1
aI1
aI0
aI1
aI0
aI1
aI0
aI0
aI2
aI1
aI1
aI0
aI1
aI2
aI1
aa(lp43
I0
aI2
aI1
aI2
aI2
aI2
aI1
aI2
aI1
aI1
aI0
aI1
aI1
aI1
aI0
aa(lp44
I0
aI1
aI0
aI2
aI0
aI1
aI2
aI0
aI0
aI2
aI2
aI0
aI0
aI1
aI1
aa(lp45
I2
aI0
aI0
aI0
aI0
aI1
aI2
aI1
aI1
aI1
aI0
aI1
aI0
aI1
aI2
aa(lp46
I0
aI0
aI1
aI1
aI1
aI0
aI2
aI2
aI2
aI0
aI2
aI1
aI2
aI2
aI0
aa(lp47
I1
aI1
aI0
aI1
aI1
aI1
aI1
aI0
aI1
aI0
aI0
aI1
aI1
aI0
aI2
aa(lp48
I1
aI0
aI2
aI2
aI2
aI2
aI2
aI1
aI2
aI1
aI2
aI1
aI2
aI1
aI1
aa(lp49
I0
aI0
aI1
aI2
aI0
aI2
aI0
aI1
aI0
aI2
aI2
aI0
aI0
aI1
aI1
aa(lp50
I0
aI2
aI2
aI0
aI0
aI1
aI1
aI1
aI2
aI0
aI0
aI0
aI1
aI2
aI0
aa(lp51
I1
aI2
aI0
aI0
aI0
aI2
aI0
aI1
aI1
aI2
aI0
aI2
aI2
aI2
aI1
aa(lp52
I1
aI2
aI2
aI2
aI2
aI2
aI0
aI2
aI2
aI1
aI1
aI1
aI1
aI2
aI1
aa(lp53
I2
aI1
aI2
aI1
aI2
aI2
aI2
aI1
aI2
aI1
aI0
aI1
aI1
aI1
aI1
aa(lp54
I1
aI0
aI0
aI1
aI2
aI1
aI0
aI1
aI1
aI1
aI2
aI0
aI0
aI2
aI1
aa(lp55
I0
aI0
aI1
aI1
aI2
aI0
aI0
aI1
aI0
aI1
aI0
aI1
aI2
aI2
aI0
aa(lp56
I2
aI1
aI0
aI0
aI1
aI1
aI0
aI0
aI0
aI0
aI0
aI0
aI2
aI0
aI2
aa(lp57
I1
aI0
aI2
aI1
aI0
aI2
aI2
aI2
aI0
aI0
aI2
aI1
aI0
aI2
aI2
aa(lp58
I1
aI0
aI2
aI2
aI1
aI1
aI1
aI0
aI2
aI0
aI2
aI0
aI1
aI1
aI1
aa(lp59
I2
aI2
aI0
aI2
aI0
aI1
aI2
aI1
aI1
aI0
aI1
aI2
aI0
aI2
aI1
aa(lp60
I2
aI1
aI0
aI2
aI2
aI1
aI1
aI1
aI2
aI2
aI0
aI2
aI2
aI2
aI0
aa(lp61
I2
aI0
aI2
aI2
aI0
aI1
aI2
aI1
aI2
aI2
aI2
aI0
aI2
aI1
aI1
aa(lp62
I1
aI1
aI0
aI2
aI2
aI1
aI2
aI0
aI2
aI1
aI0
aI1
aI0
aI0
aI2
aa(lp63
I0
aI1
aI1
aI1
aI1
aI2
aI2
aI0
aI1
aI2
aI1
aI0
aI1
aI0
aI0
aa(lp64
I1
aI1
aI2
aI0
aI1
aI1
aI2
aI0
aI1
aI0
aI1
aI2
aI1
aI0
aI1
aa(lp65
I2
aI2
aI1
aI1
aI2
aI1
aI1
aI0
aI0
aI2
aI0
aI2
aI0
aI0
aI0
aa(lp66
I1
aI2
aI1
aI0
aI0
aI2
aI0
aI0
aI2
aI1
aI1
aI0
aI2
aI1
aI0
aa(lp67
I0
aI1
aI2
aI1
aI1
aI2
aI1
aI0
aI1
aI0
aI1
aI1
aI1
aI2
aI1
aa(lp68
I0
aI1
aI2
aI2
aI1
aI2
aI0
aI1
aI0
aI2
aI0
aI1
aI1
aI2
aI1
aa(lp69
I2
aI2
aI1
aI0
aI0
aI0
aI1
aI1
aI2
aI1
aI0
aI0
aI1
aI0
aI2
aa(lp70
I0
aI1
aI2
aI0
aI0
aI0
aI1
aI2
aI0
aI2
aI1
aI2
aI1
aI0
aI2
aa(lp71
I0
aI1
aI0
aI2
aI2
aI0
aI2
aI1
aI1
aI2
aI0
aI2
aI0
aI0
aI1
aa(lp72
I2
aI1
aI2
aI0
aI0
aI0
aI1
aI0
aI0
aI1
aI0
aI1
aI0
aI2
aI1
aa(lp73
I1
aI2
aI1
aI0
aI1
aI0
aI2
aI0
aI0
aI0
aI1
aI1
aI0
aI0
aI1
aa(lp74
I2
aI0
aI2
aI1
aI1
aI1
aI1
aI1
aI0
aI2
aI0
aI2
aI1
aI0
aI2
aa(lp75
I1
aI1
aI2
aI2
aI2
aI1
aI2
aI1
aI0
aI2
aI0
aI0
aI2
aI2
aI1
aa(lp76
I2
aI2
aI0
aI2
aI1
aI2
aI1
aI0
aI1
aI2
aI1
aI1
aI1
aI2
aI1
aa(lp77
I1
aI0
aI2
aI0
aI0
aI1
aI2
aI2
aI0
aI0
aI2
aI0
aI2
aI1
aI1
aa(lp78
I1
aI0
aI0
aI1
aI1
aI1
aI1
aI0
aI2
aI0
aI2
aI2
aI1
aI2
aI1
aa(lp79
I1
aI1
aI0
aI2
aI2
aI0
aI0
aI0
aI1
aI2
aI2
aI2
aI2
aI1
aI2
aa(lp80
I0
aI0
aI0
aI0
aI2
aI2
aI1
aI1
aI0
aI0
aI2
aI2
aI2
aI1
aI2
aa(lp81
I1
aI2
aI2
aI1
aI1
aI0
aI0
aI2
aI1
aI2
aI0
aI0
aI2
aI0
aI0
aa(lp82
I2
aI0
aI1
aI2
aI2
aI2
aI1
aI2
aI1
aI1
aI2
aI0
aI0
aI0
aI0
aa(lp83
I0
aI0
aI1
aI2
aI2
aI0
aI2
aI2
aI1
aI2
aI2
aI0
aI0
aI0
aI1
aa(lp84
I2
aI2
aI2
aI1
aI1
aI0
aI1
aI1
aI0
aI0
aI2
aI2
aI0
aI2
aI0
aa(lp85
I0
aI0
aI0
aI1
aI1
aI2
aI0
aI2
aI2
aI1
aI1
aI2
aI1
aI0
aI2
aa(lp86
I2
aI2
aI1
aI0
aI0
aI0
aI1
aI2
aI0
aI1
aI0
aI2
aI1
aI1
aI1
aa(lp87
I2
aI0
aI0
aI2
aI1
aI1
aI1
aI2
aI0
aI1
aI0
aI0
aI2
aI0
aI2
aa(lp88
I1
aI2
aI0
aI2
aI0
aI0
aI0
aI2
aI0
aI2
aI2
aI1
aI1
aI2
aI2
aa(lp89
I2
aI0
aI1
aI2
aI1
aI2
aI2
aI0
aI1
aI2
aI2
aI2
aI2
aI0
aI2
aa(lp90
I2
aI1
aI0
aI1
aI2
aI0
aI2
aI0
aI2
aI1
aI1
aI0
aI0
aI0
aI0
aa(lp91
I2
aI2
aI1
aI2
aI1
aI0
aI0
aI1
aI2
aI0
aI1
aI1
aI0
aI1
aI1
aa(lp92
I0
aI0
aI0
aI2
aI2
aI2
aI0
aI1
aI0
aI2
aI2
aI2
aI2
aI2
aI0
aa(lp93
I0
aI1
aI0
aI2
aI2
aI2
aI0
aI2
aI1
aI1
aI1
aI2
aI0
aI2
aI0
aa(lp94
I0
aI0
aI1
aI0
aI0
aI0
aI2
aI0
aI2
aI1
aI0
aI1
aI1
aI0
aI1
aa(lp95
I2
aI2
aI2
aI1
aI0
aI1
aI2
aI1
aI0
aI0
aI2
aI0
aI0
aI1
aI0
aa(lp96
I0
aI2
aI0
aI1
aI0
aI1
aI1
aI0
aI2
aI0
aI1
aI1
aI2
aI2
aI0
aa(lp97
I0
aI1
aI1
aI0
aI2
aI2
aI0
aI1
aI0
aI2
aI1
aI0
aI0
aI0
aI1
aa(lp98
I0
aI2
aI1
aI1
aI0
aI0
aI1
aI0
aI1
aI0
aI1
aI1
aI1
aI1
aI0
aa(lp99
I1
aI1
aI2
aI2
aI0
aI2
aI1
aI0
aI2
aI0
aI2
aI0
aI2
aI1
aI2
aa(lp100
I1
aI0
aI0
aI2
aI2
aI0
aI2
aI0
aI0
aI2
aI2
aI1
aI2
aI0
aI1
aa(lp101
I2
aI2
aI1
aI2
aI0
aI2
aI1
aI2
aI2
aI0
aI0
aI0
aI1
aI0
aI0
aa(lp102
I0
aI1
aI1
aI2
aI1
aI2
aI2
aI0
aI0
aI0
aI2
aI2
aI2
aI1
aI1
aa(lp103
I0
aI1
aI1
aI1
aI2
aI1
aI2
aI0
aI0
aI0
aI1
aI0
aI2
aI0
aI2
aa(lp104
I1
aI2
aI1
aI0
aI0
aI0
aI2
aI0
aI1
aI1
aI2
aI1
aI0
aI0
aI1
aa(lp105
I2
aI1
aI0
aI1
aI1
aI1
aI2
aI1
aI0
aI0
aI2
aI0
aI1
aI0
aI1
aa(lp106
I0
aI0
aI0
aI0
aI1
aI1
aI1
aI1
aI1
aI2
aI2
aI0
aI0
aI2
aI2
aa(lp107
I1
aI0
aI2
aI2
aI0
aI2
aI2
aI1
aI1
aI1
aI1
aI2
aI1
aI1
aI0
aa(lp108
I2
aI0
aI1
aI1
aI1
aI0
aI1
aI1
aI2
aI2
aI2
aI1
aI0
aI1
aI0
aa(lp109
I2
aI0
aI1
aI0
aI2
aI2
aI0
aI2
aI2
aI0
aI1
aI2
aI1
aI0
aI2
aa(lp110
I2
aI1
aI2
aI2
aI2
aI1
aI1
aI0
aI1
aI0
aI0
aI0
aI0
aI0
aI0
aa(lp111
I1
aI0
aI1
aI1
aI2
aI1
aI2
aI2
aI2
aI0
aI1
aI1
aI1
aI1
aI1
aa(lp112
I1
aI1
aI1
aI2
aI0
aI1
aI0
aI0
aI0
aI0
aI2
aI2
aI2
aI2
aI0
aa(lp113
I1
aI1
aI0
aI0
aI0
aI2
aI2
aI0
aI2
aI2
aI1
aI1
aI0
aI1
aI0
aa(lp114
I1
aI2
aI0
aI0
aI1
aI1
aI2
aI0
aI2
aI1
aI1
aI1
aI0
aI2
aI1
aa(lp115
I2
aI2
aI0
aI0
aI2
aI1
aI2
aI0
aI2
aI1
aI2
aI1
aI2
aI2
aI0
aa(lp116
I0
aI0
aI0
aI0
aI1
aI1
aI1
aI2
aI1
aI0
aI0
aI2
aI1
aI0
aI1
aa(lp117
I0
aI0
aI0
aI0
aI0
aI0
aI0
aI1
aI2
aI1
aI2
aI1
aI1
aI2
aI0
aa(lp118
I2
aI1
aI0
aI0
aI2
aI1
aI0
aI2
aI2
aI0
aI1
aI2
aI0
aI0
aI0
aa(lp119
I1
aI1
aI1
aI0
aI1
aI1
aI1
aI1
aI0
aI0
aI1
aI1
aI2
aI0
aI0
aa(lp120
I1
aI0
aI2
aI2
aI2
aI0
aI0
aI1
aI0
aI2
aI0
aI0
aI1
aI2
aI2
aa(lp121
I1
aI1
aI2
aI0
aI0
aI0
aI0
aI2
aI0
aI2
aI0
aI1
aI2
aI2
aI1
aa(lp122
I1
aI1
aI1
aI1
aI1
aI2
aI0
aI1
aI2
aI1
aI0
aI2
aI2
aI1
aI0
aa(lp123
I1
aI1
aI2
aI0
aI1
aI2
aI2
aI2
aI2
aI1
aI1
aI0
aI1
aI1
aI1
aa(lp124
I0
aI2
aI1
aI2
aI0
aI1
aI1
aI0
aI2
aI0
aI2
aI1
aI1
aI1
aI1
aa(lp125
I2
aI1
aI0
aI0
aI0
aI1
aI2
aI0
aI0
aI1
aI2
aI2
aI2
aI2
aI0
aa(lp126
I0
aI1
aI0
aI2
aI2
aI2
aI1
aI2
aI1
aI1
aI0
aI0
aI0
aI0
aI0
aa(lp127
I0
aI2
aI1
aI0
aI0
aI0
aI2
aI0
aI1
aI0
aI2
aI0
aI2
aI1
aI1
aa(lp128
I0
aI0
aI0
aI1
aI0
aI2
aI0
aI2
aI0
aI0
aI1
aI2
aI0
aI2
aI0
aa(lp129
I1
aI1
aI1
aI0
aI0
aI1
aI2
aI1
aI0
aI1
aI1
aI0
aI1
aI2
aI2
aa(lp130
I2
aI0
aI1
aI2
aI1
aI0
aI1
aI1
aI1
aI2
aI1
aI1
aI2
aI1
aI2
aa(lp131
I0
aI2
aI2
aI2
aI0
aI2
aI0
aI1
aI1
aI2
aI1
aI0
aI1
aI1
aI1
aa(lp132
I1
aI1
aI2
aI1
aI2
aI0
aI1
aI0
aI1
aI0
aI2
aI2
aI1
aI2
aI2
aa(lp133
I0
aI0
aI2
aI0
aI2
aI2
aI0
aI1
aI1
aI2
aI2
aI1
aI0
aI1
aI1
aa(lp134
I1
aI2
aI1
aI0
aI2
aI2
aI0
aI1
aI0
aI2
aI2
aI2
aI1
aI1
aI2
aa(lp135
I0
aI2
aI2
aI0
aI0
aI1
aI1
aI2
aI2
aI1
aI2
aI1
aI0
aI1
aI2
aa(lp136
I2
aI2
aI2
aI2
aI1
aI0
aI0
aI0
aI0
aI1
aI1
aI1
aI1
aI1
aI0
aa(lp137
I0
aI2
aI1
aI1
aI0
aI0
aI1
aI2
aI1
aI1
aI0
aI0
aI2
aI0
aI2
aa(lp138
I1
aI1
aI0
aI2
aI1
aI2
aI2
aI1
aI1
aI1
aI0
aI0
aI2
aI1
aI0
aa(lp139
I0
aI2
aI2
aI0
aI0
aI1
aI1
aI2
aI2
aI2
aI2
aI1
aI0
aI1
aI2
aa(lp140
I0
aI0
aI0
aI2
aI2
aI0
aI1
aI0
aI1
aI1
aI2
aI1
aI2
aI0
aI1
aa(lp141
I2
aI0
aI2
aI0
aI2
aI1
aI1
aI1
aI1
aI2
aI1
aI0
aI1
aI1
aI1
aa(lp142
I1
aI0
aI1
aI2
aI2
aI1
aI1
aI2
aI0
aI2
aI2
aI1
aI2
aI2
aI0
aa(lp143
I2
aI1
aI0
aI0
aI2
aI1
aI1
aI1
aI0
aI0
aI1
aI0
aI1
aI0
aI1
aa(lp144
I0
aI1
aI1
aI2
aI0
aI2
aI2
aI1
aI2
aI1
aI2
aI0
aI1
aI0
aI0
aa(lp145
I1
aI0
aI1
aI2
aI0
aI2
aI0
aI1
aI0
aI0
aI2
aI0
aI1
aI1
aI2
aa(lp146
I2
aI2
aI0
aI1
aI0
aI0
aI0
aI1
aI1
aI0
aI0
aI0
aI0
aI2
aI2
aa(lp147
I0
aI1
aI2
aI2
aI1
aI0
aI1
aI1
aI0
aI2
aI2
aI2
aI0
aI1
aI2
aa(lp148
I0
aI1
aI2
aI2
aI1
aI1
aI1
aI0
aI1
aI2
aI0
aI0
aI0
aI2
aI1
aa(lp149
I1
aI1
aI2
aI0
aI2
aI2
aI1
aI1
aI1
aI2
aI1
aI1
aI2
aI1
aI1
aa(lp150
I2
aI1
aI2
aI2
aI2
aI1
aI0
aI0
aI0
aI0
aI1
aI2
aI1
aI1
aI1
aa(lp151
I0
aI2
aI1
aI2
aI2
aI1
aI1
aI1
aI1
aI2
aI2
aI0
aI2
aI0
aI2
aa(lp152
I0
aI0
aI0
aI2
aI2
aI1
aI1
aI0
aI1
aI1
aI1
aI2
aI1
aI1
aI0
aa(lp153
I2
aI2
aI0
aI1
aI0
aI0
aI0
aI2
aI1
aI2
aI2
aI2
aI2
aI1
aI2
aa(lp154
I0
aI0
aI1
aI2
aI0
aI0
aI0
aI1
aI2
aI1
aI1
aI0
aI1
aI1
aI0
aa(lp155
I0
aI1
aI1
aI1
aI1
aI0
aI1
aI1
aI0
aI1
aI0
aI2
aI0
aI0
aI2
aa(lp156
I0
aI1
aI1
aI0
aI1
aI0
aI2
aI1
aI1
aI1
aI1
aI1
aI0
aI1
aI0
aa(lp157
I0
aI0
aI1
aI1
aI2
aI0
aI1
aI0
aI0
aI1
aI0
aI0
aI1
aI0
aI1
aa(lp158
I2
aI1
aI2
aI2
aI1
aI1
aI1
aI1
aI0
aI1
aI1
aI0
aI1
aI1
aI1
aa(lp159
I1
aI0
aI0
aI0
aI0
aI0
aI0
aI2
aI1
aI1
aI1
aI2
aI2
aI1
aI0
aa(lp160
I2
aI1
aI0
aI2
aI2
aI0
aI0
aI0
aI0
aI1
aI2
aI2
aI1
aI0
aI0
aa(lp161
I1
aI0
aI1
aI0
aI0
aI2
aI1
aI0
aI1
aI0
aI0
aI0
aI2
aI1
aI1
aa(lp162
I0
aI1
aI2
aI1
aI1
aI1
aI0
aI2
aI0
aI0
aI0
aI0
aI1
aI1
aI0
aa(lp163
I0
aI0
aI2
aI1
aI1
aI2
aI0
aI2
aI1
aI0
aI0
aI1
aI2
aI1
aI1
aa(lp164
I1
aI0
aI1
aI1
aI2
aI0
aI0
aI0
aI2
aI0
aI1
aI1
aI0
aI1
aI2
aa(lp165
I1
aI1
aI1
aI1
aI2
aI2
aI1
aI1
aI2
aI1
aI0
aI2
aI0
aI0
aI2
aa(lp166
I2
aI1
aI0
aI1
aI0
aI1
aI1
aI1
aI0
aI0
aI1
aI2
aI1
aI2
aI0
aa(lp167
I2
aI2
aI1
aI2
aI0
aI1
aI0
aI2
aI0
aI2
aI1
aI2
aI2
aI1
aI2
aa(lp168
I1
aI1
aI0
aI1
aI2
aI1
aI1
aI1
aI2
aI1
aI2
aI2
aI1
aI1
aI1
aa(lp169
I0
aI0
aI1
aI0
aI2
aI2
aI2
aI0
aI2
aI2
aI2
aI0
aI1
aI2
aI2
aa(lp170
I2
aI1
aI2
aI2
aI2
aI0
aI1
aI1
aI0
aI1
aI2
aI0
aI0
aI0
aI2
aa(lp171
I1
aI0
aI0
aI1
aI2
aI2
aI1
aI2
aI2
aI2
aI0
aI1
aI1
aI0
aI1
aa(lp172
I1
aI0
aI1
aI1
aI2
aI0
aI0
aI1
aI2
aI2
aI2
aI1
aI2
aI2
aI0
aa(lp173
I0
aI1
aI0
aI0
aI2
aI2
aI2
aI1
aI2
aI1
aI1
aI0
aI2
aI2
aI0
aa(lp174
I1
aI2
aI1
aI0
aI1
aI0
aI1
aI1
aI0
aI0
aI1
aI1
aI0
aI1
aI1
aa(lp175
I0
aI1
aI1
aI1
aI0
aI2
aI2
aI1
aI2
aI0
aI2
aI0
aI0
aI0
aI0
aa(lp176
I2
aI2
aI2
aI1
aI1
aI0
aI2
aI0
aI0
aI1
aI2
aI1
aI0
aI2
aI1
aa(lp177
I2
aI0
aI2
aI0
aI2
aI0
aI1
aI1
aI2
aI1
aI2
aI2
aI2
aI2
aI0
aa(lp178
I2
aI0
aI0
aI1
aI0
aI2
aI0
aI0
aI0
aI0
aI1
aI0
aI0
aI0
aI1
aa(lp179
I1
aI2
aI2
aI2
aI0
aI2
aI1
aI0
aI0
aI2
aI0
aI1
aI2
aI0
aI2
aa(lp180
I1
aI2
aI2
aI0
aI0
aI2
aI0
aI1
aI1
aI1
aI2
aI1
aI0
aI1
aI2
aa(lp181
I1
aI0
aI2
aI0
aI0
aI1
aI2
aI0
aI1
aI1
aI0
aI1
aI1
aI0
aI2
aa(lp182
I1
aI1
aI1
aI2
aI2
aI1
aI1
aI2
aI1
aI1
aI0
aI2
aI0
aI2
aI2
aa(lp183
I2
aI2
aI1
aI2
aI1
aI0
aI2
aI2
aI1
aI1
aI1
aI1
aI2
aI0
aI2
aa(lp184
I2
aI2
aI0
aI2
aI2
aI2
aI0
aI1
aI2
aI0
aI1
aI0
aI2
aI0
aI0
aa(lp185
I2
aI2
aI1
aI1
aI2
aI2
aI2
aI2
aI1
aI2
aI2
aI2
aI0
aI1
aI1
aa(lp186
I0
aI0
aI1
aI1
aI1
aI1
aI0
aI0
aI0
aI1
aI1
aI2
aI0
aI0
aI0
aa(lp187
I2
aI1
aI2
aI2
aI1
aI1
aI2
aI1
aI1
aI1
aI0
aI1
aI1
aI2
aI0
aa(lp188
I2
aI1
aI1
aI1
aI1
aI0
aI0
aI1
aI1
aI2
aI2
aI1
aI2
aI1
aI2
aa(lp189
I1
aI1
aI0
aI0
aI1
aI2
aI1
aI1
aI0
aI0
aI1
aI1
aI0
aI0
aI0
aa(lp190
I1
aI0
aI1
aI0
aI0
aI1
aI2
aI0
aI0
aI1
aI0
aI2
aI0
aI1
aI2
aa(lp191
I1
aI0
aI1
aI1
aI1
aI1
aI0
aI2
aI0
aI0
aI2
aI2
aI2
aI0
aI0
aa(lp192
I0
aI0
aI1
aI2
aI2
aI0
aI2
aI2
aI1
aI2
aI1
aI1
aI0
aI0
aI0
aa(lp193
I1
aI0
aI0
aI2
aI0
aI2
aI0
aI2
aI1
aI1
aI2
aI0
aI1
aI0
aI1
aa(lp194
I1
aI0
aI1
aI0
aI0
aI0
aI1
aI1
aI0
aI2
aI0
aI0
aI0
aI0
aI2
aa(lp195
I1
aI2
aI1
aI0
aI2
aI2
aI0
aI1
aI1
aI2
aI1
aI0
aI0
aI0
aI1
aa(lp196
I2
aI2
aI2
aI2
aI0
aI1
aI2
aI2
aI0
aI2
aI2
aI2
aI0
aI1
aI0
aa(lp197
I2
aI2
aI1
aI1
aI1
aI2
aI2
aI2
aI0
aI0
aI1
aI0
aI2
aI2
aI1
aa(lp198
I2
aI2
aI1
aI2
aI1
aI2
aI1
aI1
aI2
aI0
aI1
aI0
aI2
aI1
aI0
aa(lp199
I1
aI2
aI0
aI1
aI1
aI1
aI1
aI0
aI0
aI2
aI0
aI1
aI2
aI0
aI0
aa(lp200
I1
aI2
aI0
aI1
aI1
aI2
aI1
aI0
aI2
aI2
aI0
aI2
aI2
aI0
aI1
aa(lp201
I2
aI2
aI0
aI0
aI2
aI2
aI1
aI1
aI1
aI1
aI2
aI1
aI0
aI2
aI0
aa(lp202
I0
aI1
aI1
aI0
aI2
aI0
aI1
aI0
aI1
aI1
aI0
aI1
aI1
aI1
aI2
aa(lp203
I0
aI2
aI1
aI1
aI1
aI2
aI1
aI2
aI0
aI0
aI2
aI1
aI2
aI2
aI0
aa(lp204
I1
aI1
aI0
aI2
aI1
aI0
aI0
aI0
aI1
aI0
aI2
aI1
aI0
aI0
aI1
aa(lp205
I1
aI1
aI1
aI2
aI2
aI0
aI1
aI1
aI1
aI1
aI2
aI2
aI1
aI2
aI0
aa(lp206
I1
aI1
aI0
aI2
aI0
aI2
aI2
aI0
aI2
aI0
aI2
aI2
aI0
aI1
aI2
aa(lp207
I2
aI2
aI1
aI1
aI0
aI1
aI2
aI2
aI0
aI0
aI0
aI2
aI0
aI2
aI2
aa(lp208
I0
aI0
aI2
aI2
aI2
aI1
aI1
aI0
aI2
aI2
aI1
aI0
aI0
aI0
aI0
aa(lp209
I1
aI1
aI0
aI1
aI1
aI0
aI0
aI0
aI0
aI1
aI1
aI0
aI1
aI0
aI1
aa(lp210
I1
aI0
aI0
aI0
aI1
aI0
aI1
aI0
aI1
aI0
aI2
aI2
aI2
aI1
aI0
aa(lp211
I1
aI2
aI1
aI0
aI1
aI0
aI0
aI2
aI2
aI0
aI1
aI0
aI0
aI0
aI2
aa(lp212
I1
aI0
aI0
aI1
aI2
aI1
aI2
aI0
aI2
aI1
aI2
aI2
aI0
aI0
aI0
aa(lp213
I2
aI0
aI2
aI1
aI0
aI1
aI2
aI1
aI2
aI2
aI2
aI2
aI2
aI1
aI0
aa(lp214
I1
aI0
aI1
aI1
aI1
aI2
aI0
aI2
aI1
aI2
aI2
aI0
aI2
aI2
aI2
aa(lp215
I1
aI2
aI1
aI2
aI2
aI0
aI1
aI2
aI1
aI0
aI0
aI1
aI2
aI2
aI2
aa(lp216
I0
aI0
aI1
aI1
aI1
aI2
aI1
aI0
aI1
aI0
aI2
aI0
aI0
aI1
aI2
aa(lp217
I1
aI0
aI2
aI0
aI1
aI2
aI0
aI1
aI2
aI0
aI0
aI0
aI2
aI0
aI1
aa(lp218
I1
aI0
aI1
aI1
aI2
aI2
aI0
aI0
aI1
aI1
aI2
aI0
aI0
aI0
aI0
aa(lp219
I0
aI1
aI0
aI2
aI2
aI1
aI1
aI2
aI1
aI1
aI2
aI0
aI0
aI0
aI1
aa(lp220
I2
aI1
aI0
aI2
aI0
aI0
aI1
aI1
aI2
aI0
aI1
aI0
aI0
aI2
aI2
aa(lp221
I2
aI2
aI0
aI0
aI0
aI1
aI1
aI2
aI1
aI0
aI1
aI0
aI2
aI1
aI1
aa(lp222
I1
aI2
aI2
aI1
aI2
aI0
aI0
aI0
aI0
aI2
aI1
aI1
aI0
aI1
aI0
aa(lp223
I0
aI1
aI2
aI0
aI2
aI0
aI2
aI0
aI1
aI0
aI0
aI1
aI1
aI2
aI0
aa(lp224
I2
aI0
aI1
aI0
aI2
aI2
aI2
aI1
aI1
aI2
aI1
aI2
aI0
aI1
aI2
aa(lp225
I2
aI2
aI0
aI2
aI2
aI1
aI0
aI2
aI2
aI1
aI2
aI2
aI2
aI0
aI1
aa(lp226
I0
aI0
aI2
aI2
aI1
aI1
aI2
aI0
aI0
aI1
aI2
aI2
aI2
aI2
aI1
aa(lp227
I2
aI0
aI2
aI1
aI0
aI2
aI2
aI2
aI0
aI2
aI2
aI0
aI0
aI2
aI1
aa(lp228
I1
aI0
aI0
aI0
aI0
aI2
aI0
aI2
aI2
aI1
aI0
aI1
aI1
aI0
aI0
aa(lp229
I2
aI2
aI2
aI0
aI1
aI0
aI1
aI0
aI2
aI2
aI2
aI2
aI2
aI2
aI1
aa(lp230
I1
aI0
aI0
aI2
aI2
aI2
aI2
aI2
aI1
aI0
aI1
aI2
aI0
aI1
aI2
aa(lp231
I0
aI0
aI2
aI0
aI1
aI2
aI1
aI1
aI1
aI1
aI2
aI0
aI0
aI1
aI0
aa(lp232
I0
aI2
aI1
aI0
aI0
aI1
aI2
aI0
aI2
aI1
aI2
aI1
aI1
aI0
aI1
aa(lp233
I0
aI1
aI0
aI1
aI0
aI2
aI0
aI0
aI1
aI2
aI0
aI0
aI0
aI2
aI2
aa(lp234
I2
aI2
aI0
aI1
aI2
aI1
aI2
aI0
aI1
aI0
aI0
aI1
aI1
aI1
aI0
aa(lp235
I1
aI0
aI0
aI2
aI2
aI2
aI1
aI1
aI2
aI0
aI1
aI2
aI2
aI2
aI1
aa(lp236
I0
aI1
aI1
aI0
aI1
aI2
aI1
aI1
aI1
aI0
aI1
aI1
aI0
aI0
aI1
aa(lp237
I2
aI0
aI2
aI1
aI2
aI0
aI0
aI1
aI1
aI0
aI0
aI0
aI2
aI0
aI1
aa(lp238
I2
aI0
aI1
aI1
aI2
aI2
aI2
aI2
aI0
aI1
aI2
aI2
aI2
aI2
aI2
aa(lp239
I1
aI0
aI1
aI0
aI0
aI1
aI0
aI0
aI2
aI0
aI1
aI1
aI2
aI0
aI1
aa(lp240
I0
aI0
aI0
aI0
aI0
aI0
aI0
aI1
aI1
aI1
aI2
aI1
aI1
aI2
aI1
aa(lp241
I2
aI0
aI0
aI1
aI2
aI2
aI2
aI2
aI2
aI1
aI0
aI1
aI2
aI0
aI2
aa(lp242
I1
aI1
aI2
aI2
aI0
aI1
aI2
aI0
aI2
aI2
aI1
aI2
aI2
aI1
aI2
aa(lp243
I2
aI1
aI2
aI2
aI2
aI0
aI1
aI0
aI2
aI0
aI2
aI0
aI1
aI2
aI1
aa(lp244
I1
aI0
aI0
aI1
aI0
aI1
aI0
aI2
aI0
aI0
aI2
aI0
aI1
aI0
aI2
aa(lp245
I2
aI0
aI1
aI1
aI1
aI2
aI2
aI0
aI0
aI2
aI1
aI2
aI2
aI2
aI1
aa(lp246
I0
aI0
aI1
aI0
aI1
aI2
aI0
aI2
aI2
aI1
aI0
aI2
aI0
aI0
aI0
aa(lp247
I0
aI1
aI1
aI1
aI1
aI2
aI2
aI1
aI0
aI1
aI0
aI0
aI0
aI0
aI2
aa(lp248
I1
aI1
aI0
aI2
aI1
aI2
aI1
aI1
aI2
aI1
aI2
aI1
aI2
aI0
aI2
aa(lp249
I1
aI0
aI1
aI2
aI0
aI1
aI1
aI0
aI1
aI0
aI0
aI1
aI2
aI2
aI0
aa(lp250
I2
aI2
aI0
aI0
aI2
aI1
aI2
aI2
aI1
aI2
aI2
aI0
aI2
aI1
aI0
aa(lp251
I0
aI2
aI1
aI0
aI0
aI0
aI0
aI0
aI1
aI0
aI0
aI1
aI0
aI0
aI1
aa(lp252
I1
aI2
aI1
aI1
aI2
aI1
aI0
aI0
aI1
aI2
aI2
aI2
aI1
aI2
aI1
aa(lp253
I1
aI2
aI1
aI2
aI2
aI2
aI2
aI2
aI0
aI1
aI2
aI1
aI2
aI2
aI2
aa(lp254
I2
aI0
aI1
aI2
aI0
aI2
aI1
aI1
aI2
aI2
aI1
aI1
aI1
aI1
aI1
aa(lp255
I2
aI1
aI1
aI1
aI0
aI0
aI1
aI0
aI0
aI0
aI1
aI2
aI0
aI0
aI0
aa(lp256
I1
aI0
aI2
aI2
aI2
aI2
aI2
aI2
aI2
aI1
aI1
aI0
aI2
aI1
aI2
aa(lp257
I1
aI2
aI1
aI0
aI1
aI2
aI2
aI2
aI1
aI0
aI2
aI2
aI1
aI2
aI0
aa(lp258
I1
aI0
aI0
aI2
aI2
aI1
aI2
aI2
aI0
aI0
aI0
aI1
aI0
aI0
aI0
aa(lp259
I2
aI0
aI2
aI0
aI0
aI0
aI2
aI0
aI0
aI0
aI0
aI0
aI0
aI2
aI0
aa(lp260
I2
aI2
aI1
aI1
aI0
aI1
aI1
aI1
aI1
aI1
aI2
aI2
aI1
aI2
aI2
aa(lp261
I1
aI0
aI0
aI2
aI0
aI1
aI0
aI2
aI1
aI0
aI2
aI0
aI0
aI1
aI1
aa(lp262
I0
aI2
aI0
aI2
aI0
aI0
aI0
aI1
aI1
aI0
aI1
aI0
aI0
aI1
aI0
aa(lp263
I1
aI2
aI1
aI2
aI2
aI2
aI0
aI0
aI0
aI1
aI1
aI2
aI2
aI2
aI1
aa(lp264
I1
aI2
aI0
aI1
aI1
aI2
aI2
aI2
aI0
aI2
aI1
aI2
aI2
aI1
aI2
aa(lp265
I1
aI2
aI2
aI1
aI0
aI2
aI0
aI1
aI2
aI0
aI2
aI2
aI2
aI2
aI2
aa(lp266
I0
aI2
aI2
aI1
aI2
aI2
aI0
aI2
aI2
aI2
aI2
aI2
aI2
aI2
aI1
aa(lp267
I1
aI1
aI0
aI0
aI2
aI2
aI2
aI1
aI2
aI2
aI0
aI1
aI2
aI2
aI1
aa(lp268
I0
aI1
aI0
aI1
aI0
aI1
aI1
aI1
aI0
aI1
aI1
aI0
aI1
aI0
aI0
aa(lp269
I0
aI2
aI2
aI2
aI2
aI1
aI1
aI1
aI2
aI2
aI0
aI1
aI2
aI1
aI2
aa(lp270
I1
aI2
aI1
aI1
aI1
aI1
aI2
aI0
aI1
aI1
aI1
aI2
aI0
aI2
aI2
aa(lp271
I0
aI1
aI0
aI1
aI1
aI1
aI1
aI1
aI1
aI0
aI1
aI0
aI0
aI0
aI0
aa(lp272
I1
aI2
aI2
aI2
aI2
aI0
aI1
aI1
aI2
aI1
aI1
aI1
aI0
aI1
aI1
aa(lp273
I0
aI1
aI2
aI0
aI1
aI0
aI0
aI1
aI0
aI0
aI0
aI1
aI2
aI1
aI0
aa(lp274
I1
aI2
aI2
aI0
aI2
aI1
aI2
aI2
aI2
aI2
aI0
aI0
aI1
aI2
aI2
aa(lp275
I2
aI2
aI1
aI1
aI1
aI2
aI1
aI1
aI0
aI0
aI2
aI2
aI1
aI1
aI1
aa(lp276
I2
aI1
aI2
aI2
aI1
aI1
aI0
aI2
aI1
aI1
aI2
aI1
aI2
aI2
aI2
aa(lp277
I0
aI1
aI0
aI1
aI0
aI0
aI0
aI1
aI1
aI2
aI1
aI0
aI0
aI2
aI1
aa(lp278
I2
aI2
aI1
aI1
aI2
aI0
aI1
aI2
aI2
aI2
aI0
aI0
aI2
aI2
aI1
aa(lp279
I0
aI0
aI0
aI0
aI0
aI1
aI0
aI2
aI1
aI2
aI1
aI1
aI1
aI1
aI1
aa(lp280
I1
aI2
aI0
aI1
aI0
aI0
aI0
aI0
aI0
aI0
aI0
aI2
aI1
aI1
aI0
aa(lp281
I1
aI2
aI0
aI2
aI2
aI2
aI1
aI2
aI1
aI1
aI1
aI1
aI0
aI2
aI2
aa(lp282
I2
aI2
aI0
aI1
aI2
aI0
aI2
aI2
aI2
aI1
aI2
aI0
aI2
aI2
aI1
aa(lp283
I2
aI2
aI1
aI2
aI2
aI1
aI1
aI1
aI2
aI0
aI0
aI1
aI2
aI1
aI2
aa(lp284
I0
aI2
aI1
aI1
aI2
aI1
aI1
aI2
aI0
aI1
aI2
aI1
aI2
aI2
aI2
aa(lp285
I1
aI2
aI2
aI2
aI2
aI1
aI2
aI2
aI2
aI0
aI1
aI2
aI1
aI2
aI2
aa(lp286
I0
aI0
aI0
aI2
aI0
aI2
aI1
aI0
aI1
aI1
aI1
aI0
aI0
aI0
aI1
aa(lp287
I0
aI1
aI0
aI0
aI2
aI0
aI2
aI0
aI0
aI0
aI1
aI0
aI2
aI0
aI0
aa(lp288
I2
aI2
aI2
aI2
aI2
aI0
aI1
aI2
aI1
aI2
aI0
aI2
aI1
aI2
aI0
aa(lp289
I0
aI1
aI2
aI1
aI1
aI0
aI1
aI0
aI0
aI2
aI0
aI0
aI0
aI0
aI1
aa(lp290
I2
aI2
aI1
aI2
aI0
aI2
aI2
aI0
aI2
aI2
aI2
aI2
aI2
aI0
aI1
aa(lp291
I0
aI0
aI0
aI1
aI1
aI0
aI0
aI0
aI2
aI0
aI2
aI2
aI0
aI1
aI1
aa(lp292
I0
aI2
aI0
aI0
aI0
aI0
aI0
aI1
aI1
aI0
aI0
aI1
aI0
aI2
aI0
aa(lp293
I2
aI1
aI1
aI1
aI2
aI0
aI2
aI1
aI1
aI2
aI2
aI1
aI2
aI2
aI0
aa(lp294
I0
aI0
aI2
aI0
aI1
aI0
aI1
aI0
aI1
aI0
aI1
aI0
aI1
aI2
aI1
aa(lp295
I1
aI2
aI0
aI0
aI2
aI0
aI1
aI0
aI0
aI1
aI1
aI1
aI0
aI0
aI0
aa(lp296
I0
aI0
aI0
aI1
aI2
aI1
aI2
aI1
aI0
aI0
aI2
aI0
aI1
aI0
aI0
aa(lp297
I0
aI0
aI0
aI0
aI1
aI0
aI0
aI1
aI0
aI0
aI0
aI0
aI0
aI2
aI1
aa(lp298
I0
aI0
aI0
aI0
aI2
aI0
aI0
aI0
aI2
aI1
aI0
aI1
aI0
aI2
aI2
aa(lp299
I1
aI0
aI1
aI2
aI1
aI1
aI2
aI2
aI1
aI2
aI2
aI2
aI2
aI2
aI2
aa(lp300
I0
aI1
aI2
aI2
aI2
aI2
aI1
aI2
aI2
aI2
aI1
aI2
aI2
aI1
aI0
aa(lp301
I1
aI0
aI2
aI1
aI2
aI2
aI2
aI2
aI2
aI2
aI1
aI2
aI0
aI0
aI2
aa(lp302
I2
aI0
aI2
aI2
aI1
aI1
aI2
aI2
aI0
aI2
aI2
aI2
aI0
aI0
aI2
aa(lp303
I0
aI0
aI1
aI0
aI2
aI1
aI0
aI0
aI2
aI1
aI1
aI1
aI0
aI0
aI0
aa(lp304
I2
aI1
aI1
aI2
aI2
aI1
aI1
aI2
aI2
aI1
aI2
aI1
aI0
aI1
aI1
aa(lp305
I1
aI2
aI0
aI0
aI2
aI1
aI2
aI0
aI1
aI2
aI2
aI2
aI2
aI2
aI1
aa(lp306
I1
aI1
aI0
aI0
aI0
aI2
aI0
aI0
aI0
aI1
aI0
aI1
aI1
aI1
aI0
aa(lp307
I1
aI1
aI0
aI2
aI0
aI1
aI0
aI1
aI0
aI0
aI0
aI0
aI0
aI0
aI0
aa(lp308
I0
aI0
aI0
aI0
aI1
aI2
aI0
aI2
aI0
aI0
aI1
aI0
aI0
aI2
aI2
aa(lp309
I0
aI0
aI2
aI0
aI0
aI0
aI2
aI1
aI2
aI1
aI1
aI0
aI0
aI1
aI0
aa(lp310
I2
aI1
aI2
aI2
aI2
aI0
aI1
aI2
aI2
aI0
aI1
aI1
aI2
aI0
aI2
aa(lp311
I2
aI2
aI2
aI2
aI2
aI1
aI0
aI0
aI2
aI1
aI1
aI1
aI2
aI1
aI2
aa(lp312
I1
aI0
aI0
aI0
aI1
aI1
aI0
aI0
aI0
aI1
aI1
aI1
aI0
aI2
aI1
aa(lp313
I2
aI0
aI2
aI1
aI0
aI2
aI2
aI1
aI1
aI2
aI2
aI1
aI2
aI2
aI0
aa(lp314
I0
aI1
aI2
aI1
aI1
aI1
aI0
aI1
aI0
aI0
aI0
aI2
aI0
aI0
aI1
aa(lp315
I2
aI0
aI2
aI1
aI2
aI1
aI1
aI2
aI1
aI2
aI2
aI1
aI1
aI0
aI2
aa(lp316
I1
aI2
aI1
aI2
aI2
aI2
aI1
aI1
aI1
aI0
aI2
aI0
aI2
aI2
aI1
aa(lp317
I0
aI0
aI1
aI0
aI1
aI0
aI0
aI0
aI1
aI1
aI0
aI1
aI2
aI2
aI1
aa(lp318
I2
aI2
aI2
aI1
aI0
aI1
aI1
aI2
aI2
aI0
aI2
aI0
aI1
aI2
aI2
aa(lp319
I2
aI1
aI0
aI0
aI1
aI2
aI2
aI2
aI1
aI1
aI2
aI1
aI2
aI1
aI2
aa(lp320
I0
aI1
aI1
aI0
aI1
aI1
aI2
aI0
aI1
aI0
aI1
aI0
aI0
aI0
aI2
aa(lp321
I2
aI0
aI2
aI1
aI2
aI2
aI2
aI2
aI0
aI2
aI2
aI1
aI1
aI1
aI2
aa(lp322
I0
aI2
aI1
aI1
aI2
aI2
aI0
aI0
aI1
aI2
aI2
aI2
aI2
aI1
aI2
aa(lp323
I0
aI2
aI1
aI2
aI2
aI2
aI1
aI1
aI2
aI0
aI2
aI2
aI2
aI2
aI0
aa(lp324
I1
aI2
aI2
aI2
aI1
aI1
aI1
aI2
aI2
aI1
aI1
aI1
aI2
aI2
aI1
aa(lp325
I2
aI2
aI2
aI2
aI1
aI2
aI1
aI1
aI1
aI2
aI2
aI1
aI1
aI1
aI2
aa(lp326
I1
aI1
aI2
aI2
aI1
aI2
aI2
aI2
aI2
aI2
aI2
aI2
aI0
aI0
aI1
aa(lp327
I2
aI1
aI1
aI1
aI2
aI2
aI1
aI2
aI2
aI2
aI1
aI2
aI0
aI1
aI2
aa(lp328
I1
aI0
aI1
aI1
aI0
aI0
aI2
aI1
aI0
aI0
aI1
aI0
aI0
aI0
aI0
aa(lp329
I1
aI0
aI1
aI0
aI1
aI1
aI0
aI2
aI0
aI0
aI1
aI0
aI1
aI1
aI0
aa(lp330
I2
aI2
aI2
aI1
aI2
aI0
aI2
aI0
aI2
aI2
aI2
aI0
aI2
aI2
aI0
aa(lp331
I0
aI0
aI1
aI1
aI1
aI0
aI0
aI1
aI2
aI0
aI0
aI2
aI1
aI0
aI0
aa(lp332
I2
aI0
aI2
aI2
aI1
aI1
aI1
aI2
aI0
aI1
aI2
aI2
aI2
aI1
aI1
aa(lp333
I0
aI0
aI0
aI0
aI0
aI0
aI0
aI0
aI0
aI0
aI2
aI2
aI0
aI0
aI0
aa(lp334
I0
aI2
aI2
aI0
aI1
aI0
aI0
aI0
aI1
aI0
aI0
aI1
aI1
aI0
aI0
aa(lp335
I0
aI0
aI0
aI0
aI0
aI0
aI2
aI2
aI0
aI2
aI0
aI2
aI0
aI1
aI0
aa(lp336
I2
aI0
aI2
aI2
aI1
aI2
aI0
aI2
aI2
aI2
aI2
aI0
aI2
aI2
aI2
aa(lp337
I2
aI0
aI0
aI0
aI0
aI1
aI1
aI2
aI0
aI0
aI1
aI0
aI1
aI1
aI0
aa(lp338
I2
aI1
aI0
aI2
aI2
aI2
aI2
aI1
aI2
aI0
aI1
aI1
aI1
aI2
aI2
aa(lp339
I2
aI1
aI1
aI0
aI1
aI0
aI0
aI1
aI0
aI0
aI0
aI1
aI1
aI1
aI0
aa(lp340
I1
aI2
aI2
aI2
aI0
aI2
aI1
aI2
aI2
aI2
aI2
aI2
aI2
aI0
aI1
aa(lp341
I0
aI0
aI0
aI0
aI0
aI0
aI0
aI0
aI2
aI1
aI0
aI2
aI0
aI0
aI1
aa(lp342
I2
aI2
aI1
aI2
aI0
aI1
aI2
aI2
aI1
aI1
aI2
aI2
aI2
aI0
aI2
aa(lp343
I2
aI2
aI2
aI2
aI2
aI1
aI2
aI0
aI0
aI2
aI2
aI1
aI1
aI1
aI2
aa(lp344
I0
aI2
aI0
aI2
aI0
aI2
aI2
aI2
aI1
aI2
aI2
aI2
aI2
aI1
aI1
aa(lp345
I0
aI1
aI1
aI2
aI2
aI0
aI0
aI2
aI2
aI2
aI2
aI1
aI2
aI2
aI2
aa(lp346
I0
aI0
aI2
aI2
aI0
aI0
aI0
aI0
aI2
aI0
aI0
aI1
aI1
aI0
aI0
aa(lp347
I2
aI2
aI1
aI2
aI1
aI1
aI2
aI2
aI1
aI2
aI0
aI2
aI1
aI0
aI2
aa(lp348
I1
aI1
aI1
aI0
aI0
aI2
aI1
aI0
aI0
aI0
aI0
aI0
aI1
aI0
aI1
aa(lp349
I0
aI1
aI1
aI2
aI2
aI1
aI0
aI1
aI0
aI0
aI0
aI0
aI0
aI0
aI1
aa(lp350
I0
aI2
aI1
aI1
aI0
aI1
aI0
aI0
aI0
aI0
aI0
aI0
aI0
aI2
aI1
aa(lp351
I1
aI0
aI0
aI0
aI1
aI0
aI0
aI2
aI0
aI1
aI0
aI1
aI1
aI0
aI0
aa(lp352
I1
aI0
aI0
aI2
aI1
aI1
aI0
aI0
aI0
aI1
aI0
aI0
aI1
aI1
aI1
aa(lp353
I1
aI1
aI0
aI0
aI0
aI0
aI1
aI0
aI0
aI0
aI0
aI2
aI1
aI0
aI0
aa(lp354
I2
aI2
aI2
aI1
aI2
aI2
aI2
aI1
aI0
aI2
aI1
aI2
aI0
aI2
aI0
aa(lp355
I0
aI0
aI0
aI1
aI0
aI0
aI0
aI2
aI2
aI2
aI1
aI0
aI0
aI0
aI1
aa(lp356
I2
aI0
aI0
aI2
aI1
aI1
aI2
aI1
aI2
aI2
aI1
aI2
aI2
aI2
aI2
aa(lp357
I0
aI0
aI2
aI0
aI0
aI0
aI1
aI0
aI0
aI0
aI1
aI1
aI1
aI0
aI0
aa(lp358
I2
aI1
aI0
aI0
aI2
aI1
aI0
aI1
aI0
aI0
aI0
aI0
aI2
aI0
aI0
aa(lp359
I1
aI2
aI2
aI0
aI2
aI2
aI2
aI0
aI2
aI0
aI2
aI2
aI0
aI2
aI2
aa(lp360
I2
aI1
aI2
aI2
aI2
aI1
aI0
aI2
aI2
aI1
aI0
aI1
aI2
aI2
aI2
aa(lp361
I2
aI0
aI0
aI0
aI0
aI0
aI1
aI0
aI0
aI2
aI1
aI1
aI0
aI2
aI0
aa(lp362
I0
aI1
aI1
aI1
aI0
aI0
aI1
aI2
aI1
aI0
aI0
aI0
aI1
aI1
aI0
aa(lp363
I0
aI0
aI2
aI0
aI2
aI0
aI1
aI1
aI0
aI0
aI0
aI1
aI1
aI0
aI0
aa(lp364
I1
aI1
aI1
aI2
aI2
aI2
aI1
aI2
aI2
aI2
aI1
aI1
aI1
aI0
aI2
aa(lp365
I1
aI2
aI1
aI1
aI2
aI0
aI1
aI1
aI2
aI2
aI2
aI0
aI2
aI2
aI2
aa(lp366
I0
aI1
aI2
aI0
aI0
aI1
aI0
aI0
aI0
aI1
aI0
aI2
aI1
aI0
aI0
aa(lp367
I2
aI1
aI1
aI2
aI2
aI2
aI1
aI1
aI1
aI2
aI2
aI0
aI2
aI1
aI2
aa(lp368
I1
aI0
aI2
aI2
aI1
aI1
aI2
aI2
aI2
aI2
aI2
aI2
aI2
aI1
aI2
aa(lp369
I2
aI1
aI0
aI0
aI0
aI0
aI1
aI0
aI0
aI0
aI2
aI0
aI0
aI2
aI0
aa(lp370
I2
aI2
aI2
aI2
aI1
aI1
aI0
aI0
aI2
aI2
aI1
aI1
aI2
aI1
aI2
aa(lp371
I0
aI1
aI2
aI2
aI2
aI2
aI1
aI2
aI2
aI1
aI1
aI2
aI2
aI1
aI1
aa(lp372
I0
aI0
aI0
aI1
aI2
aI2
aI1
aI0
aI0
aI0
aI0
aI1
aI0
aI1
aI0
aa(lp373
I1
aI2
aI0
aI1
aI1
aI0
aI2
aI0
aI0
aI0
aI0
aI0
aI0
aI0
aI0
aa(lp374
I0
aI1
aI2
aI1
aI0
aI0
aI0
aI2
aI0
aI1
aI0
aI0
aI1
aI0
aI0
aa(lp375
I0
aI2
aI0
aI0
aI0
aI1
aI0
aI0
aI1
aI1
aI0
aI1
aI0
aI1
aI0
aa(lp376
I0
aI0
aI0
aI2
aI1
aI0
aI0
aI0
aI0
aI0
aI1
aI0
aI1
aI1
aI1
aa(lp377
I1
aI0
aI1
aI0
aI0
aI0
aI1
aI0
aI1
aI2
aI1
aI0
aI0
aI0
aI0
aa(lp378
I2
aI1
aI1
aI2
aI0
aI1
aI1
aI0
aI0
aI0
aI0
aI0
aI0
aI0
aI0
aa(lp379
I2
aI1
aI1
aI0
aI2
aI2
aI2
aI1
aI2
aI0
aI1
aI2
aI2
aI2
aI2
aa(lp380
I2
aI1
aI1
aI2
aI2
aI2
aI1
aI1
aI2
aI1
aI1
aI2
aI2
aI2
aI1
aa(lp381
I1
aI2
aI2
aI1
aI2
aI0
aI2
aI2
aI2
aI2
aI1
aI1
aI2
aI2
aI0
aa(lp382
I0
aI0
aI0
aI1
aI2
aI0
aI0
aI0
aI2
aI2
aI0
aI0
aI1
aI0
aI0
aa(lp383
I1
aI2
aI2
aI2
aI2
aI1
aI2
aI2
aI2
aI1
aI1
aI2
aI1
aI1
aI0
aa(lp384
I1
aI1
aI2
aI1
aI2
aI2
aI1
aI2
aI1
aI1
aI2
aI2
aI2
aI1
aI1
aa(lp385
I2
aI2
aI1
aI2
aI0
aI1
aI2
aI1
aI2
aI2
aI2
aI1
aI0
aI2
aI2
aa(lp386
I0
aI0
aI1
aI1
aI2
aI0
aI1
aI1
aI0
aI0
aI1
aI1
aI0
aI0
aI0
aa(lp387
I1
aI2
aI2
aI1
aI1
aI2
aI2
aI1
aI2
aI1
aI2
aI0
aI2
aI2
aI1
aa(lp388
I0
aI0
aI1
aI0
aI2
aI1
aI0
aI2
aI0
aI0
aI1
aI0
aI0
aI0
aI1
aa(lp389
I2
aI1
aI2
aI2
aI1
aI0
aI2
aI2
aI2
aI2
aI2
aI1
aI1
aI2
aI2
aa(lp390
I0
aI2
aI0
aI0
aI0
aI2
aI0
aI0
aI0
aI2
aI0
aI0
aI1
aI0
aI0
aa(lp391
I1
aI1
aI1
aI0
aI0
aI0
aI1
aI0
aI0
aI2
aI0
aI0
aI0
aI1
aI0
aa(lp392
I2
aI2
aI2
aI0
aI2
aI0
aI2
aI1
aI2
aI1
aI2
aI2
aI2
aI2
aI1
aa(lp393
I2
aI2
aI2
aI2
aI1
aI1
aI0
aI1
aI2
aI2
aI1
aI2
aI0
aI2
aI2
aa(lp394
I2
aI1
aI1
aI2
aI2
aI2
aI1
aI2
aI2
aI2
aI2
aI1
aI0
aI1
aI1
aa(lp395
I0
aI2
aI2
aI1
aI2
aI2
aI2
aI2
aI2
aI1
aI2
aI2
aI2
aI1
aI2
aa(lp396
I0
aI0
aI0
aI2
aI0
aI1
aI0
aI2
aI0
aI0
aI0
aI0
aI0
aI0
aI2
aa(lp397
I0
aI1
aI0
aI1
aI0
aI0
aI0
aI0
aI0
aI0
aI1
aI0
aI0
aI1
aI1
aa(lp398
I2
aI1
aI2
aI1
aI2
aI2
aI2
aI2
aI2
aI2
aI2
aI0
aI2
aI2
aI0
aa(lp399
I2
aI2
aI2
aI2
aI1
aI1
aI2
aI2
aI2
aI2
aI0
aI1
aI2
aI1
aI2
aa(lp400
I0
aI2
aI0
aI0
aI0
aI0
aI0
aI2
aI0
aI1
aI0
aI0
aI0
aI0
aI0
aa(lp401
I2
aI1
aI1
aI2
aI2
aI2
aI1
aI1
aI1
aI2
aI2
aI2
aI1
aI1
aI2
aa(lp402
I2
aI1
aI0
aI2
aI2
aI2
aI2
aI1
aI2
aI2
aI2
aI2
aI0
aI1
aI2
aa(lp403
I2
aI2
aI1
aI2
aI2
aI2
aI1
aI2
aI0
aI0
aI2
aI1
aI2
aI2
aI2
aa(lp404
I0
aI0
aI0
aI0
aI0
aI1
aI0
aI0
aI0
aI1
aI0
aI2
aI0
aI0
aI2
aa(lp405
I2
aI2
aI1
aI2
aI2
aI2
aI2
aI2
aI2
aI2
aI2
aI2
aI0
aI2
aI2
aa(lp406
I0
aI2
aI0
aI0
aI2
aI0
aI0
aI0
aI0
aI2
aI0
aI0
aI0
aI1
aI0
aa(lp407
I0
aI1
aI2
aI0
aI0
aI0
aI0
aI0
aI1
aI0
aI0
aI1
aI1
aI0
aI0
aa(lp408
I1
aI2
aI1
aI1
aI2
aI2
aI2
aI2
aI2
aI2
aI1
aI2
aI2
aI1
aI1
aa(lp409
I1
aI0
aI2
aI2
aI2
aI1
aI1
aI2
aI1
aI2
aI2
aI2
aI1
aI2
aI2
aa(lp410
I0
aI0
aI1
aI0
aI0
aI2
aI1
aI0
aI0
aI2
aI0
aI0
aI0
aI1
aI0
aa(lp411
I2
aI0
aI2
aI2
aI2
aI2
aI1
aI1
aI2
aI2
aI1
aI2
aI2
aI1
aI2
aa(lp412
I2
aI0
aI0
aI1
aI0
aI0
aI1
aI0
aI0
aI0
aI1
aI0
aI0
aI0
aI2
aa(lp413
I0
aI0
aI2
aI0
aI2
aI0
aI0
aI1
aI1
aI0
aI0
aI0
aI1
aI0
aI0
aa(lp414
I0
aI0
aI0
aI0
aI0
aI0
aI2
aI1
aI0
aI1
aI0
aI2
aI0
aI0
aI0
aa(lp415
I1
aI1
aI0
aI1
aI0
aI0
aI1
aI0
aI0
aI2
aI1
aI0
aI0
aI0
aI0
aa(lp416
I2
aI1
aI2
aI2
aI2
aI0
aI2
aI1
aI2
aI2
aI2
aI2
aI0
aI2
aI1
aa(lp417
I2
aI1
aI2
aI2
aI2
aI1
aI2
aI2
aI2
aI1
aI1
aI2
aI0
aI2
aI1
aa(lp418
I0
aI1
aI1
aI0
aI0
aI0
aI2
aI0
aI2
aI0
aI1
aI0
aI0
aI0
aI0
aa(lp419
I2
aI2
aI2
aI1
aI2
aI2
aI1
aI2
aI1
aI0
aI2
aI2
aI1
aI2
aI2
aa(lp420
I1
aI2
aI1
aI2
aI1
aI2
aI2
aI2
aI2
aI2
aI1
aI1
aI1
aI2
aI2
aa(lp421
I0
aI2
aI0
aI0
aI0
aI0
aI0
aI0
aI0
aI1
aI1
aI2
aI0
aI0
aI0
aa(lp422
I2
aI1
aI2
aI2
aI2
aI0
aI0
aI2
aI1
aI2
aI2
aI2
aI2
aI1
aI2
aa(lp423
I0
aI0
aI0
aI0
aI1
aI1
aI1
aI0
aI0
aI1
aI0
aI1
aI0
aI1
aI1
aa(lp424
I2
aI2
aI0
aI1
aI2
aI2
aI2
aI2
aI2
aI1
aI1
aI2
aI2
aI1
aI1
aa(lp425
I1
aI0
aI1
aI0
aI0
aI0
aI0
aI1
aI2
aI2
aI0
aI0
aI0
aI0
aI0
aa(lp426
I1
aI0
aI2
aI0
aI0
aI1
aI1
aI0
aI0
aI0
aI1
aI0
aI0
aI0
aI1
aa(lp427
I1
aI0
aI0
aI1
aI1
aI1
aI0
aI0
aI1
aI0
aI1
aI0
aI0
aI1
aI0
aa(lp428
I1
aI2
aI2
aI2
aI1
aI1
aI2
aI2
aI2
aI1
aI2
aI2
aI2
aI0
aI2
aa(lp429
I0
aI1
aI2
aI1
aI2
aI1
aI2
aI1
aI2
aI2
aI2
aI2
aI2
aI2
aI2
aa(lp430
I0
aI0
aI0
aI0
aI0
aI0
aI1
aI0
aI2
aI1
aI0
aI0
aI0
aI2
aI0
aa(lp431
I0
aI0
aI0
aI2
aI0
aI0
aI0
aI0
aI0
aI2
aI1
aI0
aI1
aI0
aI0
aa(lp432
I0
aI0
aI1
aI1
aI0
aI0
aI0
aI1
aI0
aI0
aI0
aI0
aI0
aI0
aI1
aa(lp433
I2
aI2
aI1
aI2
aI2
aI2
aI2
aI2
aI2
aI2
aI0
aI1
aI1
aI1
aI2
aa(lp434
I2
aI2
aI1
aI2
aI2
aI2
aI1
aI1
aI1
aI2
aI2
aI1
aI2
aI0
aI2
aa(lp435
I0
aI0
aI0
aI0
aI2
aI1
aI0
aI1
aI0
aI0
aI1
aI0
aI0
aI2
aI0
aa(lp436
I0
aI0
aI0
aI0
aI1
aI0
aI0
aI1
aI0
aI2
aI1
aI0
aI2
aI0
aI0
aa(lp437
I1
aI2
aI1
aI2
aI1
aI1
aI2
aI1
aI2
aI2
aI2
aI1
aI2
aI2
aI1
aa(lp438
I1
aI2
aI2
aI2
aI1
aI2
aI1
aI2
aI2
aI2
aI1
aI1
aI2
aI2
aI2
aa(lp439
I1
aI2
aI0
aI2
aI2
aI2
aI2
aI2
aI2
aI1
aI1
aI2
aI0
aI2
aI2
aa(lp440
I0
aI2
aI1
aI0
aI0
aI0
aI0
aI0
aI0
aI0
aI0
aI0
aI1
aI0
aI0
aa(lp441
I0
aI0
aI1
aI1
aI0
aI0
aI0
aI1
aI1
aI0
aI1
aI0
aI0
aI1
aI0
aa(lp442
I1
aI2
aI2
aI2
aI1
aI2
aI2
aI0
aI2
aI1
aI1
aI2
aI2
aI2
aI2
aa(lp443
I0
aI0
aI0
aI0
aI2
aI0
aI0
aI1
aI1
aI0
aI0
aI0
aI1
aI0
aI0
aa(lp444
I0
aI0
aI0
aI0
aI1
aI0
aI1
aI0
aI0
aI0
aI0
aI0
aI0
aI2
aI2
aa(lp445
I1
aI1
aI2
aI2
aI2
aI1
aI2
aI2
aI2
aI2
aI2
aI2
aI0
aI1
aI2
aa(lp446
I1
aI0
aI1
aI0
aI0
aI1
aI0
aI1
aI0
aI0
aI0
aI0
aI2
aI0
aI0
aa(lp447
I1
aI2
aI2
aI2
aI2
aI0
aI2
aI2
aI1
aI2
aI1
aI2
aI2
aI2
aI0
aa(lp448
I1
aI2
aI0
aI2
aI2
aI2
aI2
aI1
aI2
aI1
aI2
aI1
aI2
aI2
aI2
aa(lp449
I0
aI0
aI0
aI0
aI0
aI0
aI1
aI1
aI1
aI0
aI0
aI1
aI1
aI0
aI1
aa(lp450
I2
aI2
aI2
aI2
aI1
aI2
aI2
aI0
aI0
aI2
aI2
aI2
aI1
aI2
aI1
aa(lp451
I0
aI1
aI0
aI1
aI2
aI0
aI1
aI0
aI0
aI0
aI1
aI0
aI0
aI0
aI0
aa(lp452
I2
aI0
aI2
aI1
aI2
aI2
aI1
aI2
aI2
aI1
aI2
aI1
aI1
aI2
aI2
aa(lp453
I2
aI2
aI0
aI1
aI1
aI2
aI1
aI2
aI2
aI2
aI2
aI2
aI2
aI2
aI0
aa(lp454
I1
aI2
aI2
aI2
aI1
aI2
aI1
aI0
aI2
aI1
aI2
aI2
aI1
aI2
aI2
aa(lp455
I0
aI1
aI1
aI1
aI2
aI2
aI1
aI2
aI2
aI2
aI2
aI2
aI2
aI2
aI2
aa(lp456
I2
aI2
aI2
aI2
aI2
aI1
aI2
aI2
aI2
aI2
aI2
aI1
aI0
aI0
aI2
aa(lp457
I0
aI0
aI2
aI0
aI0
aI1
aI1
aI0
aI0
aI1
aI0
aI0
aI0
aI0
aI0
aa(lp458
I0
aI0
aI1
aI1
aI1
aI0
aI0
aI1
aI0
aI1
aI0
aI0
aI0
aI0
aI1
aa(lp459
I2
aI2
aI2
aI2
aI1
aI2
aI2
aI0
aI2
aI1
aI1
aI2
aI2
aI2
aI2
aa(lp460
I0
aI0
aI0
aI0
aI2
aI2
aI0
aI1
aI0
aI0
aI0
aI0
aI0
aI0
aI0
aa(lp461
I2
aI2
aI2
aI2
aI2
aI0
aI2
aI2
aI2
aI1
aI1
aI2
aI2
aI1
aI1
aa(lp462
I2
aI2
aI1
aI1
aI2
aI1
aI2
aI2
aI1
aI2
aI2
aI2
aI1
aI2
aI1
aa(lp463
I0
aI1
aI0
aI0
aI0
aI1
aI2
aI0
aI0
aI0
aI1
aI0
aI0
aI0
aI1
aa(lp464
I2
aI1
aI0
aI0
aI1
aI0
aI0
aI0
aI1
aI0
aI0
aI0
aI0
aI0
aI1
aa(lp465
I0
aI0
aI0
aI0
aI0
aI0
aI0
aI2
aI0
aI0
aI1
aI1
aI0
aI0
aI0
aa(lp466
I0
aI0
aI0
aI1
aI1
aI0
aI1
aI1
aI1
aI0
aI1
aI0
aI0
aI0
aI0
aa(lp467
I2
aI2
aI1
aI1
aI1
aI2
aI2
aI1
aI0
aI2
aI2
aI2
aI2
aI2
aI2
aa(lp468
I0
aI0
aI1
aI1
aI2
aI1
aI0
aI1
aI0
aI0
aI0
aI0
aI0
aI0
aI0
aa(lp469
I2
aI2
aI2
aI0
aI1
aI2
aI1
aI1
aI2
aI2
aI2
aI2
aI2
aI2
aI2
aa(lp470
I0
aI0
aI0
aI0
aI0
aI0
aI0
aI0
aI0
aI0
aI2
aI0
aI0
aI1
aI0
aa(lp471
I0
aI1
aI0
aI0
aI0
aI1
aI1
aI0
aI0
aI0
aI2
aI0
aI0
aI1
aI0
aa(lp472
I2
aI0
aI2
aI2
aI2
aI1
aI2
aI2
aI2
aI1
aI2
aI2
aI1
aI1
aI2
aa(lp473
I0
aI0
aI1
aI0
aI0
aI0
aI0
aI1
aI0
aI1
aI0
aI1
aI1
aI0
aI1
aa(lp474
I1
aI2
aI0
aI0
aI0
aI0
aI1
aI0
aI0
aI0
aI2
aI0
aI0
aI0
aI0
aa(lp475
I1
aI1
aI2
aI2
aI2
aI1
aI2
aI2
aI2
aI2
aI1
aI2
aI1
aI2
aI2
aa(lp476
I2
aI0
aI2
aI1
aI1
aI2
aI2
aI2
aI2
aI1
aI2
aI2
aI1
aI2
aI2
aa(lp477
I0
aI0
aI2
aI0
aI0
aI0
aI0
aI0
aI0
aI0
aI0
aI0
aI1
aI0
aI1
aa(lp478
I0
aI2
aI2
aI2
aI2
aI2
aI2
aI2
aI2
aI0
aI1
aI2
aI2
aI2
aI2
aa(lp479
I1
aI0
aI0
aI0
aI0
aI0
aI0
aI0
aI0
aI1
aI1
aI1
aI0
aI0
aI1
aa(lp480
I0
aI0
aI0
aI0
aI0
aI0
aI0
aI0
aI1
aI0
aI0
aI1
aI0
aI0
aI0
aa(lp481
I2
aI1
aI2
aI2
aI2
aI1
aI2
aI2
aI1
aI2
aI2
aI2
aI2
aI1
aI1
aa(lp482
I2
aI0
aI2
aI2
aI2
aI2
aI2
aI0
aI2
aI1
aI2
aI2
aI2
aI2
aI2
aa(lp483
I2
aI2
aI1
aI2
aI2
aI2
aI1
aI2
aI2
aI2
aI2
aI1
aI1
aI2
aI2
aa(lp484
I2
aI2
aI2
aI2
aI2
aI0
aI2
aI2
aI2
aI2
aI1
aI2
aI2
aI2
aI2
aa(lp485
I0
aI2
aI1
aI2
aI1
aI2
aI2
aI2
aI2
aI2
aI2
aI2
aI2
aI2
aI1
aa(lp486
I2
aI1
aI2
aI2
aI2
aI1
aI2
aI2
aI1
aI2
aI2
aI1
aI2
aI1
aI2
aa(lp487
I2
aI2
aI2
aI1
aI2
aI2
aI2
aI2
aI2
aI2
aI1
aI1
aI1
aI2
aI2
aa(lp488
I0
aI1
aI1
aI0
aI0
aI0
aI1
aI1
aI0
aI1
aI0
aI0
aI0
aI0
aI0
aa(lp489
I2
aI2
aI2
aI1
aI2
aI2
aI0
aI1
aI2
aI2
aI1
aI2
aI2
aI2
aI2
aa(lp490
I0
aI0
aI1
aI0
aI0
aI1
aI1
aI0
aI0
aI0
aI0
aI0
aI1
aI0
aI0
aa(lp491
I2
aI1
aI2
aI1
aI1
aI1
aI2
aI2
aI2
aI2
aI2
aI1
aI2
aI2
aI2
aa(lp492
I2
aI0
aI2
aI1
aI2
aI2
aI2
aI2
aI2
aI1
aI1
aI2
aI2
aI2
aI2
aa(lp493
I0
aI0
aI2
aI2
aI0
aI0
aI0
aI0
aI0
aI0
aI0
aI0
aI1
aI0
aI0
aa(lp494
I2
aI2
aI2
aI2
aI2
aI2
aI2
aI2
aI1
aI2
aI2
aI2
aI2
aI1
aI1
aa(lp495
I1
aI0
aI0
aI1
aI0
aI0
aI0
aI0
aI0
aI0
aI0
aI1
aI2
aI0
aI0
aa(lp496
I2
aI2
aI2
aI2
aI2
aI2
aI2
aI2
aI2
aI1
aI0
aI2
aI1
aI2
aI2
aa(lp497
I1
aI0
aI0
aI1
aI0
aI2
aI0
aI0
aI0
aI0
aI0
aI0
aI0
aI1
aI0
aa(lp498
I0
aI0
aI0
aI0
aI0
aI1
aI2
aI0
aI1
aI0
aI0
aI0
aI1
aI0
aI0
aa(lp499
I2
aI1
aI2
aI2
aI1
aI2
aI1
aI1
aI2
aI2
aI2
aI1
aI2
aI2
aI2
aa(lp500
I0
aI0
aI0
aI0
aI1
aI2
aI0
aI0
aI0
aI0
aI2
aI0
aI0
aI0
aI0
aa(lp501
I2
aI2
aI0
aI2
aI0
aI2
aI2
aI2
aI2
aI2
aI2
aI2
aI2
aI1
aI2
aa.