(lp1
(lp2
I0
aI0
aI0
aI0
aI0
aI0
aI0
aI0
aI0
aI0
aI0
aI0
aI0
aI0
aI0
aI0
aI0
aI0
aI0
aI0
aI0
aI0
aI0
aI0
aI0
aI0
aI0
aI0
aI0
aI0
aI0
aI0
aI0
aa(lp3
I1
aI1
aI1
aI1
aI1
aI1
aI1
aI1
aI1
aI1
aI1
aI1
aI1
aI1
aI1
aI1
aI1
aI1
aI1
aI1
aI1
aI1
aI1
aI1
aI1
aI1
aI1
aI1
aI1
aI1
aI1
aI1
aI1
aa(lp4
I2
aI2
aI2
aI2
aI2
aI2
aI2
aI2
aI2
aI2
aI2
aI2
aI2
aI2
aI2
aI2
aI2
aI2
aI2
aI2
aI2
aI2
aI2
aI2
aI2
aI2
aI2
aI2
aI2
aI2
aI2
aI2
aI2
aa(lp5
I2
aI0
aI1
aI2
aI2
aI2
aI1
aI1
aI0
aI1
aI0
aI1
aI1
aI0
aI2
aI0
aI1
aI1
aI2
aI1
aI2
aI0
aI2
aI1
aI1
aI1
aI1
aI1
aI1
aI0
aI2
aI0
aI2
aa(lp6
I1
aI1
aI2
aI2
aI0
aI0
aI0
aI1
aI0
aI1
aI0
aI1
aI2
aI1
aI1
aI2
aI2
aI1
aI1
aI2
aI0
aI2
aI0
aI2
aI0
aI0
aI0
aI1
aI2
aI0
aI0
aI0
aI2
aa(lp7
I1
aI2
aI1
aI1
aI0
aI0
aI0
aI2
aI1
aI2
aI0
aI0
aI2
aI0
aI2
aI2
aI1
aI1
aI1
aI2
aI0
aI1
aI1
aI2
aI1
aI0
aI0
aI0
aI0
aI1
aI1
aI1
aI1
aa(lp8
I2
aI0
aI0
aI2
aI0
aI2
aI0
aI2
aI0
aI2
aI2
aI1
aI1
aI2
aI2
aI1
aI2
aI2
aI1
aI2
aI1
aI1
aI0
aI1
aI2
aI2
aI2
aI1
aI0
aI2
aI0
aI0
aI2
aa(lp9
I1
aI2
aI2
aI2
aI0
aI2
aI0
aI0
aI0
aI1
aI1
aI0
aI0
aI0
aI0
aI0
aI0
aI1
aI1
aI1
aI2
aI0
aI2
aI0
aI2
aI2
aI2
aI1
aI2
aI0
aI0
aI0
aI0
aa(lp10
I2
aI1
aI0
aI2
aI2
aI1
aI2
aI1
aI1
aI1
aI2
aI2
aI1
aI1
aI0
aI0
aI1
aI1
aI0
aI1
aI1
aI0
aI0
aI2
aI1
aI2
aI0
aI2
aI0
aI0
aI0
aI1
aI2
aa(lp11
I0
aI1
aI0
aI0
aI1
aI1
aI1
aI1
aI2
aI1
aI0
aI0
aI2
aI2
aI2
aI0
aI1
aI1
aI1
aI2
aI0
aI0
aI1
aI0
aI2
aI2
aI2
aI0
aI0
aI1
aI2
aI2
aI2
aa(lp12
I0
aI1
aI1
aI1
aI0
aI1
aI1
aI1
aI2
aI0
aI0
aI2
aI2
aI1
aI2
aI2
aI0
aI2
aI1
aI2
aI0
aI1
aI0
aI2
aI0
aI0
aI2
aI1
aI2
aI0
aI2
aI0
aI2
aa(lp13
I0
aI2
aI2
aI1
aI0
aI1
aI2
aI0
aI2
aI1
aI2
aI2
aI1
aI0
aI0
aI2
aI2
aI1
aI0
aI1
aI2
aI2
aI0
aI0
aI1
aI0
aI0
aI2
aI0
aI0
aI1
aI0
aI1
aa(lp14
I2
aI0
aI0
aI1
aI0
aI2
aI2
aI0
aI0
aI2
aI1
aI2
aI1
aI2
aI0
aI1
aI0
aI2
aI0
aI2
aI0
aI1
aI0
aI1
aI2
aI0
aI1
aI1
aI2
aI0
aI1
aI0
aI2
aa(lp15
I2
aI0
aI2
aI2
aI0
aI0
aI2
aI0
aI1
aI0
aI0
aI2
aI0
aI2
aI0
aI1
aI2
aI0
aI2
aI2
aI0
aI0
aI0
aI0
aI2
aI0
aI0
aI0
aI1
aI2
aI2
aI0
aI1
aa(lp16
I1
aI1
aI0
aI1
aI0
aI0
aI0
aI2
aI0
aI0
aI0
aI1
aI0
aI2
aI2
aI2
aI2
aI0
aI2
aI0
aI1
aI2
aI0
aI1
aI1
aI0
aI1
aI0
aI2
aI2
aI1
aI0
aI0
aa(lp17
I1
aI2
aI2
aI2
aI2
aI1
aI1
aI1
aI0
aI0
aI1
aI1
aI0
aI1
aI0
aI2
aI0
aI1
aI0
aI1
aI0
aI1
aI0
aI1
aI0
aI1
aI1
aI0
aI0
aI0
aI2
aI0
aI0
aa(lp18
I0
aI1
aI0
aI2
aI1
aI2
aI0
aI1
aI2
aI1
aI2
aI2
aI2
aI1
aI1
aI0
aI2
aI0
aI2
aI0
aI2
aI1
aI1
aI1
aI0
aI1
aI1
aI2
aI1
aI0
aI1
aI1
aI1
aa(lp19
I2
aI2
aI1
aI1
aI1
aI1
aI2
aI0
aI1
aI2
aI0
aI0
aI2
aI2
aI2
aI0
aI1
aI1
aI0
aI0
aI1
aI2
aI2
aI2
aI0
aI1
aI1
aI2
aI0
aI1
aI2
aI2
aI0
aa(lp20
I1
aI0
aI0
aI2
aI1
aI0
aI2
aI2
aI1
aI1
aI0
aI2
aI2
aI2
aI1
aI2
aI0
aI1
aI2
aI2
aI0
aI2
aI1
aI1
aI1
aI0
aI0
aI0
aI2
aI0
aI0
aI0
aI1
aa(lp21
I1
aI2
aI0
aI2
aI2
aI1
aI0
aI2
aI2
aI0
aI0
aI2
aI1
aI0
aI0
aI1
aI1
aI1
aI1
aI0
aI0
aI2
aI0
aI0
aI0
aI2
aI2
aI1
aI1
aI0
aI1
aI0
aI1
aa(lp22
I0
aI0
aI2
aI1
aI1
aI0
aI1
aI2
aI1
aI0
aI2
aI1
aI2
aI2
aI2
aI1
aI2
aI1
aI1
aI0
aI1
aI1
aI1
aI0
aI0
aI1
aI0
aI2
aI0
aI1
aI2
aI0
aI0
aa(lp23
I2
aI2
aI0
aI0
aI1
aI1
aI2
aI0
aI0
aI0
aI0
aI1
aI2
aI1
aI1
aI1
aI0
aI1
aI0
aI1
aI2
aI0
aI0
aI1
aI1
aI1
aI0
aI2
aI2
aI2
aI0
aI2
aI1
aa(lp24
I2
aI2
aI0
aI1
aI1
aI0
aI1
aI1
aI1
aI1
aI0
aI1
aI0
aI0
aI1
aI1
aI0
aI2
aI1
aI0
aI2
aI2
aI2
aI2
aI2
aI1
aI2
aI1
aI2
aI1
aI2
aI1
aI1
aa(lp25
I0
aI0
aI1
aI2
aI0
aI2
aI0
aI1
aI0
aI2
aI2
aI0
aI0
aI1
aI1
aI0
aI2
aI2
aI0
aI0
aI1
aI1
aI1
aI2
aI0
aI0
aI0
aI1
aI2
aI0
aI1
aI2
aI0
aa(lp26
I0
aI0
aI2
aI0
aI1
aI1
aI2
aI0
aI2
aI2
aI2
aI1
aI1
aI2
aI2
aI2
aI2
aI2
aI0
aI2
aI2
aI1
aI1
aI1
aI1
aI2
aI1
aI2
aI1
aI2
aI1
aI2
aI2
aa(lp27
I2
aI1
aI2
aI1
aI0
aI1
aI1
aI1
aI1
aI1
aI0
aI0
aI1
aI2
aI1
aI0
aI1
aI1
aI1
aI2
aI0
aI0
aI2
aI1
aI0
aI0
aI1
aI1
aI2
aI0
aI0
aI1
aI0
aa(lp28
I1
aI0
aI1
aI2
aI2
aI0
aI2
aI1
aI0
aI0
aI1
aI1
aI0
aI0
aI0
aI0
aI0
aI0
aI2
aI0
aI2
aI1
aI0
aI2
aI1
aI0
aI2
aI2
aI2
aI0
aI0
aI2
aI1
aa(lp29
I0
aI2
aI2
aI1
aI0
aI2
aI2
aI1
aI1
aI1
aI0
aI2
aI0
aI2
aI0
aI1
aI1
aI1
aI2
aI2
aI0
aI2
aI0
aI1
aI2
aI1
aI1
aI0
aI1
aI2
aI0
aI2
aI1
aa(lp30
I2
aI1
aI0
aI2
aI2
aI1
aI1
aI1
aI2
aI2
aI0
aI2
aI2
aI2
aI0
aI2
aI0
aI2
aI2
aI0
aI1
aI2
aI1
aI2
aI2
aI2
aI0
aI2
aI1
aI1
aI1
aI1
aI0
aa(lp31
I2
aI2
aI1
aI2
aI0
aI2
aI1
aI0
aI1
aI0
aI0
aI2
aI0
aI1
aI1
aI1
aI1
aI2
aI2
aI0
aI1
aI2
aI1
aI0
aI1
aI0
aI0
aI1
aI1
aI2
aI0
aI1
aI1
aa(lp32
I2
aI0
aI1
aI0
aI1
aI2
aI1
aI0
aI1
aI2
aI2
aI1
aI1
aI2
aI1
aI1
aI0
aI0
aI2
aI0
aI2
aI0
aI0
aI0
aI1
aI2
aI1
aI0
aI0
aI2
aI0
aI0
aI2
aa(lp33
I1
aI1
aI0
aI2
aI1
aI0
aI0
aI1
aI2
aI1
aI1
aI2
aI1
aI0
aI1
aI0
aI1
aI1
aI1
aI2
aI1
aI0
aI1
aI2
aI2
aI1
aI2
aI0
aI1
aI0
aI2
aI0
aI1
aa(lp34
I1
aI2
aI1
aI2
aI2
aI1
aI0
aI0
aI0
aI1
aI1
aI2
aI1
aI0
aI0
aI1
aI0
aI2
aI0
aI1
aI2
aI0
aI0
aI0
aI1
aI2
aI0
aI2
aI1
aI2
aI1
aI0
aI2
aa(lp35
I0
aI1
aI0
aI2
aI2
aI0
aI2
aI1
aI1
aI2
aI0
aI2
aI0
aI0
aI1
aI2
aI1
aI2
aI0
aI0
aI0
aI1
aI0
aI0
aI1
aI0
aI1
aI0
aI2
aI1
aI1
aI2
aI1
aa(lp36
I0
aI1
aI0
aI2
aI0
aI0
aI0
aI1
aI1
aI0
aI0
aI1
aI2
aI0
aI2
aI1
aI1
aI1
aI1
aI1
aI0
aI2
aI0
aI2
aI1
aI0
aI2
aI1
aI1
aI2
aI2
aI2
aI1
aa(lp37
I2
aI1
aI0
aI2
aI0
aI0
aI2
aI2
aI1
aI2
aI2
aI0
aI2
aI1
aI2
aI1
aI0
aI1
aI2
aI1
aI1
aI1
aI2
aI1
aI1
aI0
aI2
aI0
aI0
aI1
aI2
aI2
aI0
aa(lp38
I0
aI2
aI0
aI2
aI1
aI1
aI1
aI0
aI0
aI1
aI1
aI1
aI1
aI0
aI2
aI0
aI2
aI2
aI1
aI2
aI1
aI1
aI1
aI0
aI2
aI2
aI0
aI0
aI0
aI1
aI2
aI2
aI2
aa(lp39
I2
aI1
aI2
aI0
aI0
aI0
aI0
aI2
aI2
aI1
aI1
aI0
aI0
aI2
aI2
aI2
aI1
aI2
aI1
aI2
aI2
aI1
aI1
aI0
aI0
aI2
aI1
aI2
aI0
aI0
aI2
aI0
aI0
aa(lp40
I2
aI0
aI1
aI2
aI2
aI2
aI1
aI2
aI1
aI1
aI2
aI0
aI0
aI0
aI0
aI0
aI0
aI1
aI2
aI2
aI0
aI2
aI2
aI1
aI2
aI2
aI0
aI0
aI0
aI1
aI2
aI2
aI2
aa(lp41
I1
aI1
aI0
aI1
aI1
aI0
aI0
aI2
aI2
aI0
aI2
aI0
aI0
aI0
aI0
aI1
aI1
aI2
aI0
aI2
aI2
aI1
aI1
aI2
aI1
aI0
aI2
aI2
aI2
aI1
aI0
aI0
aI0
aa(lp42
I1
aI2
aI0
aI1
aI0
aI2
aI1
aI1
aI1
aI2
aI0
aI0
aI2
aI1
aI1
aI1
aI2
aI0
aI1
aI0
aI0
aI2
aI0
aI2
aI1
aI2
aI0
aI2
aI0
aI0
aI0
aI2
aI0
aa(lp43
I2
aI2
aI1
aI1
aI2
aI2
aI2
aI0
aI1
aI2
aI1
aI2
aI2
aI0
aI1
aI2
aI2
aI2
aI2
aI0
aI2
aI2
aI1
aI0
aI1
aI2
aI0
aI2
aI0
aI2
aI1
aI1
aI0
aa(lp44
I0
aI0
aI0
aI2
aI2
aI1
aI2
aI1
aI0
aI0
aI1
aI2
aI0
aI1
aI1
aI0
aI1
aI1
aI0
aI0
aI0
aI2
aI2
aI2
aI0
aI1
aI0
aI2
aI2
aI2
aI2
aI2
aI0
aa(lp45
I0
aI1
aI0
aI2
aI2
aI2
aI0
aI2
aI1
aI1
aI1
aI2
aI0
aI2
aI0
aI0
aI0
aI1
aI0
aI0
aI0
aI2
aI0
aI2
aI1
aI0
aI1
aI1
aI0
aI1
aI2
aI2
aI2
aa(lp46
I1
aI0
aI1
aI2
aI1
aI0
aI0
aI2
aI0
aI0
aI1
aI0
aI0
aI2
aI0
aI1
aI0
aI1
aI1
aI0
aI2
aI0
aI1
aI1
aI2
aI2
aI0
aI0
aI1
aI1
aI0
aI2
aI2
aa(lp47
I0
aI1
aI0
aI2
aI1
aI0
aI0
aI0
aI1
aI0
aI2
aI1
aI1
aI0
aI0
aI1
aI0
aI1
aI0
aI1
aI1
aI1
aI1
aI0
aI1
aI1
aI2
aI2
aI0
aI2
aI1
aI0
aI2
aa(lp48
I0
aI2
aI0
aI2
aI1
aI2
aI1
aI0
aI0
aI2
aI2
aI0
aI2
aI0
aI0
aI2
aI2
aI1
aI2
aI0
aI1
aI2
aI2
aI1
aI2
aI0
aI2
aI1
aI2
aI2
aI0
aI0
aI0
aa(lp49
I1
aI0
aI0
aI0
aI1
aI1
aI2
aI1
aI2
aI2
aI0
aI0
aI0
aI2
aI2
aI2
aI1
aI1
aI0
aI1
aI1
aI1
aI2
aI1
aI2
aI0
aI0
aI0
aI1
aI0
aI2
aI0
aI2
aa(lp50
I1
aI2
aI1
aI0
aI0
aI0
aI2
aI0
aI1
aI1
aI2
aI1
aI0
aI0
aI1
aI2
aI1
aI0
aI1
aI1
aI1
aI2
aI1
aI0
aI0
aI2
aI0
aI1
aI0
aI1
aI0
aI0
aI0
aa(lp51
I0
aI1
aI1
aI1
aI1
aI1
aI2
aI2
aI0
aI0
aI2
aI2
aI1
aI0
aI2
aI2
aI0
aI2
aI2
aI1
aI1
aI1
aI1
aI2
aI1
aI1
aI0
aI2
aI0
aI1
aI1
aI1
aI0
aa(lp52
I1
aI1
aI2
aI2
aI2
aI1
aI0
aI1
aI0
aI2
aI0
aI1
aI0
aI2
aI2
aI0
aI2
aI2
aI0
aI1
aI2
aI1
aI0
aI2
aI2
aI1
aI2
aI2
aI2
aI1
aI1
aI0
aI1
aa(lp53
I0
aI0
aI0
aI0
aI0
aI0
aI1
aI0
aI1
aI1
aI2
aI1
aI2
aI2
aI2
aI0
aI1
aI1
aI1
aI1
aI1
aI1
aI1
aI1
aI2
aI0
aI1
aI0
aI0
aI0
aI0
aI2
aI2
aa(lp54
I2
aI2
aI0
aI1
aI1
aI0
aI0
aI0
aI2
aI2
aI0
aI2
aI2
aI1
aI1
aI0
aI1
aI0
aI1
aI2
aI0
aI0
aI1
aI1
aI2
aI0
aI2
aI1
aI1
aI1
aI0
aI2
aI1
aa(lp55
I2
aI2
aI0
aI0
aI2
aI1
aI2
aI0
aI2
aI1
aI2
aI1
aI2
aI2
aI0
aI0
aI0
aI0
aI0
aI1
aI1
aI1
aI2
aI1
aI0
aI0
aI2
aI1
aI0
aI1
aI0
aI0
aI0
aa(lp56
I0
aI0
aI0
aI0
aI1
aI2
aI1
aI2
aI1
aI1
aI2
aI0
aI2
aI1
aI0
aI0
aI2
aI1
aI0
aI2
aI2
aI0
aI1
aI2
aI0
aI0
aI0
aI1
aI1
aI1
aI0
aI1
aI1
aa(lp57
I1
aI1
aI0
aI0
aI1
aI1
aI2
aI0
aI0
aI1
aI0
aI2
aI2
aI2
aI0
aI0
aI1
aI0
aI2
aI0
aI0
aI1
aI2
aI2
aI1
aI1
aI2
aI0
aI0
aI0
aI0
aI2
aI0
aa(lp58
I2
aI0
aI1
aI2
aI2
aI1
aI1
aI1
aI1
aI1
aI1
aI2
aI0
aI1
aI2
aI1
aI0
aI2
aI2
aI1
aI0
aI1
aI1
aI2
aI0
aI1
aI2
aI2
aI2
aI2
aI1
aI1
aI0
aa(lp59
I1
aI1
aI1
aI0
aI2
aI1
aI2
aI0
aI1
aI1
aI0
aI2
aI0
aI2
aI1
aI1
aI1
aI1
aI2
aI1
aI0
aI0
aI0
aI1
aI2
aI0
aI0
aI1
aI2
aI2
aI2
aI2
aI0
aa(lp60
I0
aI1
aI0
aI2
aI2
aI2
aI1
aI2
aI1
aI1
aI0
aI0
aI0
aI0
aI0
aI0
aI2
aI1
aI0
aI0
aI0
aI2
aI0
aI1
aI0
aI2
aI0
aI2
aI1
aI1
aI0
aI0
aI0
aa(lp61
I1
aI0
aI2
aI0
aI2
aI0
aI0
aI1
aI2
aI0
aI2
aI0
aI1
aI1
aI1
aI0
aI0
aI1
aI2
aI1
aI0
aI1
aI1
aI0
aI1
aI2
aI2
aI2
aI0
aI1
aI2
aI1
aI0
aa(lp62
I1
aI1
aI1
aI2
aI1
aI1
aI2
aI1
aI2
aI0
aI2
aI2
aI2
aI0
aI2
aI0
aI1
aI1
aI2
aI1
aI0
aI1
aI1
aI1
aI1
aI1
aI2
aI1
aI2
aI0
aI1
aI0
aI1
aa(lp63
I0
aI2
aI2
aI1
aI2
aI2
aI0
aI0
aI2
aI0
aI2
aI2
aI0
aI1
aI1
aI2
aI2
aI1
aI0
aI1
aI1
aI1
aI2
aI1
aI0
aI2
aI2
aI0
aI1
aI0
aI2
aI2
aI2
aa(lp64
I1
aI1
aI2
aI0
aI2
aI2
aI0
aI0
aI1
aI1
aI2
aI2
aI1
aI2
aI1
aI0
aI1
aI2
aI2
aI2
aI2
aI2
aI1
aI0
aI0
aI0
aI0
aI1
aI1
aI1
aI1
aI1
aI0
aa(lp65
I0
aI2
aI1
aI1
aI0
aI0
aI1
aI2
aI1
aI1
aI0
aI0
aI2
aI0
aI2
aI1
aI1
aI0
aI2
aI1
aI2
aI2
aI1
aI1
aI1
aI0
aI0
aI2
aI1
aI0
aI0
aI2
aI2
aa(lp66
I0
aI0
aI1
aI1
aI2
aI2
aI2
aI2
aI1
aI0
aI1
aI2
aI0
aI0
aI0
aI2
aI2
aI0
aI1
aI0
aI1
aI1
aI2
aI1
aI2
aI0
aI1
aI2
aI0
aI2
aI0
aI2
aI1
aa(lp67
I1
aI1
aI1
aI2
aI1
aI0
aI1
aI1
aI1
aI1
aI0
aI1
aI2
aI2
aI1
aI1
aI2
aI0
aI2
aI2
aI1
aI2
aI2
aI0
aI2
aI1
aI0
aI0
aI2
aI1
aI1
aI1
aI0
aa(lp68
I0
aI1
aI0
aI1
aI0
aI1
aI0
aI1
aI1
aI2
aI0
aI2
aI2
aI1
aI2
aI1
aI2
aI0
aI1
aI0
aI0
aI1
aI0
aI1
aI2
aI0
aI2
aI0
aI1
aI0
aI0
aI2
aI0
aa(lp69
I1
aI1
aI2
aI2
aI2
aI0
aI1
aI0
aI0
aI0
aI1
aI1
aI0
aI0
aI0
aI0
aI2
aI2
aI0
aI1
aI2
aI2
aI1
aI0
aI1
aI1
aI0
aI2
aI2
aI2
aI0
aI1
aI2
aa(lp70
I0
aI1
aI2
aI2
aI1
aI1
aI1
aI0
aI1
aI2
aI0
aI0
aI0
aI2
aI1
aI1
aI1
aI2
aI0
aI2
aI2
aI1
aI1
aI1
aI2
aI1
aI1
aI2
aI1
aI1
aI2
aI1
aI2
aa(lp71
I2
aI2
aI1
aI0
aI0
aI0
aI0
aI1
aI2
aI1
aI1
aI1
aI0
aI2
aI1
aI2
aI2
aI1
aI1
aI1
aI1
aI2
aI2
aI0
aI2
aI0
aI2
aI0
aI0
aI0
aI2
aI2
aI1
aa(lp72
I1
aI0
aI1
aI1
aI1
aI2
aI1
aI1
aI0
aI2
aI2
aI0
aI1
aI0
aI0
aI0
aI2
aI1
aI2
aI2
aI2
aI2
aI1
aI2
aI0
aI0
aI1
aI2
aI0
aI0
aI0
aI1
aI2
aa(lp73
I1
aI1
aI0
aI1
aI1
aI0
aI0
aI1
aI1
aI1
aI1
aI0
aI1
aI1
aI0
aI1
aI0
aI2
aI0
aI0
aI2
aI0
aI1
aI1
aI0
aI1
aI0
aI2
aI1
aI1
aI1
aI1
aI1
aa(lp74
I0
aI1
aI0
aI0
aI0
aI1
aI1
aI2
aI0
aI1
aI0
aI0
aI1
aI0
aI0
aI1
aI0
aI1
aI2
aI1
aI2
aI2
aI1
aI1
aI1
aI1
aI0
aI1
aI1
aI0
aI1
aI1
aI1
aa(lp75
I1
aI0
aI0
aI0
aI0
aI0
aI0
aI2
aI1
aI1
aI1
aI2
aI2
aI1
aI0
aI2
aI1
aI0
aI2
aI2
aI0
aI0
aI0
aI0
aI1
aI2
aI2
aI1
aI0
aI0
aI1
aI0
aI1
aa(lp76
I0
aI0
aI2
aI1
aI0
aI1
aI0
aI0
aI0
aI2
aI1
aI1
aI0
aI1
aI2
aI1
aI1
aI1
aI0
aI2
aI0
aI0
aI0
aI0
aI1
aI1
aI0
aI2
aI0
aI1
aI2
aI1
aI0
aa(lp77
I1
aI0
aI2
aI1
aI1
aI2
aI1
aI0
aI1
aI2
aI0
aI1
aI2
aI0
aI1
aI0
aI1
aI0
aI0
aI2
aI2
aI2
aI1
aI1
aI0
aI0
aI2
aI1
aI1
aI2
aI0
aI2
aI1
aa(lp78
I0
aI0
aI1
aI2
aI1
aI1
aI1
aI0
aI1
aI1
aI2
aI0
aI0
aI0
aI2
aI0
aI1
aI1
aI0
aI1
aI2
aI1
aI1
aI1
aI1
aI2
aI2
aI1
aI1
aI2
aI1
aI0
aI2
aa(lp79
I0
aI0
aI2
aI2
aI1
aI0
aI1
aI0
aI1
aI1
aI1
aI0
aI0
aI1
aI2
aI1
aI2
aI0
aI1
aI2
aI2
aI2
aI2
aI1
aI0
aI0
aI1
aI0
aI1
aI0
aI1
aI1
aI1
aa(lp80
I2
aI2
aI1
aI2
aI0
aI1
aI0
aI2
aI0
aI2
aI1
aI2
aI2
aI1
aI2
aI1
aI1
aI0
aI1
aI2
aI1
aI1
aI1
aI2
aI1
aI2
aI2
aI1
aI1
aI1
aI0
aI0
aI1
aa(lp81
I0
aI2
aI2
aI2
aI0
aI2
aI2
aI2
aI0
aI1
aI2
aI2
aI2
aI1
aI2
aI2
aI2
aI0
aI1
aI1
aI0
aI1
aI2
aI0
aI0
aI0
aI2
aI1
aI0
aI0
aI1
aI2
aI2
aa(lp82
I1
aI2
aI2
aI2
aI0
aI1
aI1
aI0
aI1
aI1
aI0
aI1
aI1
aI2
aI0
aI0
aI1
aI2
aI2
aI2
aI1
aI2
aI2
aI0
aI0
aI1
aI0
aI0
aI2
aI2
aI2
aI1
aI2
aa(lp83
I1
aI1
aI0
aI2
aI2
aI0
aI1
aI2
aI1
aI0
aI1
aI0
aI1
aI1
aI0
aI0
aI1
aI1
aI0
aI1
aI1
aI2
aI1
aI2
aI2
aI1
aI1
aI1
aI1
aI1
aI1
aI0
aI0
aa(lp84
I1
aI0
aI1
aI0
aI0
aI2
aI1
aI1
aI1
aI2
aI1
aI0
aI0
aI1
aI2
aI2
aI0
aI2
aI0
aI1
aI1
aI1
aI0
aI2
aI2
aI1
aI2
aI0
aI2
aI0
aI0
aI0
aI0
aa(lp85
I2
aI2
aI2
aI1
aI1
aI0
aI2
aI0
aI0
aI1
aI2
aI1
aI0
aI2
aI1
aI2
aI0
aI2
aI0
aI2
aI0
aI1
aI1
aI2
aI1
aI2
aI2
aI2
aI2
aI0
aI2
aI0
aI0
aa(lp86
I1
aI0
aI2
aI0
aI0
aI0
aI0
aI1
aI0
aI0
aI0
aI1
aI1
aI2
aI2
aI2
aI0
aI2
aI1
aI0
aI0
aI2
aI0
aI1
aI2
aI0
aI2
aI1
aI2
aI2
aI0
aI0
aI2
aa(lp87
I0
aI1
aI1
aI1
aI2
aI1
aI0
aI1
aI2
aI1
aI0
aI2
aI0
aI0
aI1
aI2
aI0
aI1
aI1
aI0
aI1
aI1
aI0
aI2
aI1
aI1
aI1
aI2
aI2
aI1
aI1
aI2
aI1
aa(lp88
I1
aI0
aI2
aI0
aI2
aI2
aI2
aI2
aI1
aI2
aI1
aI0
aI2
aI2
aI1
aI1
aI1
aI1
aI2
aI0
aI2
aI2
aI2
aI0
aI2
aI2
aI2
aI0
aI1
aI2
aI0
aI1
aI0
aa(lp89
I2
aI0
aI0
aI2
aI2
aI1
aI1
aI2
aI2
aI2
aI2
aI1
aI2
aI2
aI2
aI0
aI1
aI1
aI0
aI0
aI1
aI1
aI1
aI1
aI0
aI0
aI0
aI1
aI1
aI2
aI0
aI0
aI0
aa(lp90
I2
aI1
aI2
aI2
aI1
aI1
aI2
aI1
aI1
aI1
aI0
aI1
aI1
aI2
aI0
aI2
aI1
aI1
aI1
aI1
aI0
aI0
aI1
aI1
aI2
aI2
aI1
aI2
aI1
aI2
aI2
aI0
aI2
aa(lp91
I0
aI1
aI2
aI0
aI0
aI0
aI2
aI2
aI2
aI1
aI1
aI0
aI1
aI1
aI0
aI0
aI1
aI2
aI1
aI1
aI0
aI0
aI1
aI1
aI0
aI0
aI0
aI1
aI0
aI1
aI0
aI0
aI1
aa(lp92
I2
aI0
aI0
aI1
aI0
aI2
aI0
aI1
aI2
aI1
aI0
aI1
aI1
aI1
aI1
aI0
aI2
aI0
aI0
aI2
aI2
aI2
aI0
aI0
aI0
aI0
aI1
aI2
aI2
aI0
aI2
aI2
aI1
aa(lp93
I2
aI1
aI1
aI0
aI0
aI0
aI1
aI0
aI0
aI2
aI0
aI2
aI0
aI2
aI1
aI1
aI2
aI0
aI1
aI0
aI1
aI1
aI0
aI1
aI0
aI0
aI0
aI1
aI1
aI0
aI2
aI0
aI0
aa(lp94
I0
aI0
aI2
aI0
aI2
aI1
aI2
aI1
aI1
aI2
aI0
aI2
aI0
aI0
aI1
aI0
aI1
aI2
aI0
aI1
aI2
aI2
aI0
aI0
aI2
aI2
aI2
aI0
aI1
aI0
aI1
aI2
aI0
aa(lp95
I1
aI2
aI1
aI0
aI2
aI2
aI0
aI1
aI1
aI2
aI1
aI0
aI0
aI0
aI1
aI2
aI2
aI2
aI2
aI0
aI1
aI2
aI2
aI0
aI2
aI2
aI2
aI0
aI1
aI0
aI2
aI2
aI1
aa(lp96
I1
aI1
aI2
aI2
aI2
aI0
aI0
aI1
aI0
aI2
aI2
aI1
aI2
aI2
aI1
aI2
aI1
aI2
aI1
aI1
aI2
aI0
aI1
aI0
aI2
aI1
aI0
aI1
aI2
aI0
aI1
aI1
aI1
aa(lp97
I1
aI0
aI0
aI2
aI0
aI1
aI2
aI0
aI0
aI1
aI2
aI0
aI1
aI1
aI2
aI1
aI0
aI2
aI2
aI0
aI2
aI2
aI0
aI1
aI2
aI2
aI0
aI0
aI2
aI2
aI1
aI1
aI1
aa(lp98
I1
aI2
aI1
aI0
aI2
aI0
aI0
aI1
aI1
aI0
aI2
aI0
aI1
aI0
aI1
aI1
aI0
aI1
aI1
aI1
aI2
aI0
aI2
aI1
aI1
aI1
aI2
aI1
aI2
aI0
aI0
aI2
aI1
aa(lp99
I2
aI2
aI0
aI0
aI2
aI0
aI1
aI0
aI0
aI1
aI2
aI0
aI2
aI1
aI2
aI2
aI1
aI1
aI1
aI1
aI0
aI2
aI1
aI0
aI0
aI0
aI1
aI0
aI2
aI1
aI0
aI0
aI1
aa(lp100
I1
aI1
aI1
aI2
aI2
aI0
aI1
aI1
aI1
aI1
aI2
aI2
aI1
aI2
aI0
aI1
aI1
aI0
aI2
aI0
aI2
aI2
aI0
aI2
aI0
aI2
aI2
aI0
aI1
aI2
aI2
aI2
aI1
aa(lp101
I1
aI0
aI1
aI2
aI2
aI0
aI0
aI0
aI2
aI0
aI2
aI2
aI0
aI0
aI2
aI2
aI2
aI1
aI1
aI0
aI2
aI2
aI1
aI0
aI0
aI0
aI0
aI1
aI1
aI0
aI1
aI1
aI0
aa(lp102
I0
aI0
aI0
aI1
aI1
aI0
aI1
aI0
aI1
aI1
aI0
aI0
aI0
aI1
aI0
aI1
aI0
aI1
aI0
aI2
aI2
aI2
aI1
aI0
aI1
aI2
aI1
aI0
aI1
aI0
aI0
aI2
aI2
aa(lp103
I0
aI1
aI0
aI0
aI0
aI2
aI1
aI0
aI0
aI1
aI2
aI1
aI2
aI0
aI2
aI1
aI2
aI2
aI0
aI0
aI0
aI1
aI0
aI1
aI1
aI1
aI2
aI2
aI1
aI1
aI1
aI2
aI1
aa(lp104
I1
aI1
aI1
aI2
aI0
aI2
aI1
aI0
aI1
aI2
aI1
aI2
aI2
aI2
aI2
aI2
aI1
aI0
aI1
aI0
aI1
aI1
aI1
aI2
aI0
aI2
aI1
aI2
aI2
aI0
aI2
aI2
aI2
aa(lp105
I1
aI2
aI1
aI2
aI2
aI0
aI1
aI2
aI1
aI0
aI0
aI1
aI2
aI2
aI2
aI0
aI0
aI1
aI1
aI1
aI2
aI1
aI0
aI1
aI0
aI2
aI0
aI0
aI1
aI2
aI1
aI0
aI2
aa(lp106
I0
aI1
aI2
aI0
aI1
aI2
aI0
aI0
aI0
aI2
aI0
aI1
aI1
aI0
aI1
aI1
aI2
aI2
aI0
aI0
aI1
aI1
aI2
aI0
aI0
aI0
aI0
aI0
aI1
aI0
aI2
aI2
aI1
aa(lp107
I1
aI2
aI1
aI1
aI2
aI0
aI0
aI0
aI1
aI1
aI0
aI2
aI2
aI0
aI0
aI0
aI0
aI2
aI2
aI2
aI2
aI0
aI2
aI2
aI2
aI1
aI0
aI2
aI0
aI0
aI1
aI1
aI2
aa(lp108
I0
aI1
aI0
aI0
aI2
aI2
aI2
aI2
aI0
aI0
aI0
aI1
aI1
aI2
aI1
aI0
aI1
aI0
aI2
aI1
aI1
aI1
aI2
aI2
aI1
aI2
aI0
aI0
aI0
aI0
aI2
aI1
aI1
aa(lp109
I0
aI1
aI0
aI0
aI1
aI2
aI0
aI2
aI0
aI2
aI0
aI1
aI0
aI0
aI1
aI1
aI2
aI0
aI2
aI1
aI0
aI2
aI0
aI0
aI2
aI2
aI1
aI2
aI0
aI1
aI0
aI2
aI0
aa(lp110
I2
aI0
aI1
aI0
aI2
aI2
aI2
aI1
aI1
aI2
aI1
aI2
aI0
aI1
aI2
aI2
aI2
aI0
aI2
aI2
aI1
aI0
aI2
aI2
aI1
aI2
aI2
aI2
aI0
aI1
aI2
aI2
aI2
aa(lp111
I2
aI2
aI1
aI0
aI0
aI0
aI2
aI2
aI1
aI0
aI0
aI1
aI0
aI0
aI2
aI2
aI1
aI1
aI2
aI0
aI0
aI1
aI2
aI2
aI2
aI2
aI1
aI2
aI0
aI2
aI1
aI0
aI2
aa(lp112
I2
aI2
aI0
aI2
aI2
aI0
aI0
aI2
aI1
aI1
aI2
aI1
aI2
aI0
aI1
aI2
aI1
aI0
aI1
aI2
aI1
aI1
aI1
aI1
aI1
aI1
aI0
aI1
aI0
aI0
aI2
aI0
aI2
aa(lp113
I1
aI2
aI1
aI1
aI2
aI2
aI1
aI0
aI0
aI0
aI0
aI2
aI0
aI2
aI2
aI1
aI0
aI1
aI1
aI0
aI0
aI0
aI2
aI2
aI2
aI1
aI2
aI1
aI0
aI2
aI1
aI2
aI0
aa(lp114
I0
aI0
aI1
aI2
aI2
aI2
aI0
aI1
aI0
aI1
aI0
aI2
aI2
aI2
aI2
aI2
aI2
aI1
aI1
aI0
aI0
aI2
aI2
aI2
aI2
aI2
aI1
aI0
aI1
aI2
aI0
aI1
aI2
aa(lp115
I0
aI0
aI1
aI2
aI0
aI2
aI1
aI2
aI1
aI1
aI0
aI1
aI0
aI1
aI0
aI1
aI0
aI2
aI0
aI0
aI1
aI2
aI0
aI0
aI0
aI2
aI2
aI2
aI1
aI1
aI0
aI0
aI2
aa(lp116
I2
aI1
aI2
aI0
aI2
aI1
aI1
aI1
aI1
aI0
aI1
aI2
aI0
aI0
aI2
aI2
aI0
aI2
aI0
aI1
aI0
aI1
aI2
aI0
aI0
aI1
aI1
aI0
aI0
aI0
aI1
aI1
aI2
aa(lp117
I2
aI0
aI2
aI1
aI2
aI2
aI2
aI2
aI0
aI1
aI2
aI1
aI2
aI0
aI1
aI0
aI0
aI1
aI1
aI1
aI0
aI1
aI0
aI0
aI2
aI2
aI2
aI1
aI1
aI2
aI0
aI1
aI2
aa(lp118
I2
aI2
aI1
aI0
aI1
aI1
aI0
aI1
aI2
aI1
aI1
aI1
aI0
aI1
aI1
aI0
aI0
aI1
aI0
aI2
aI2
aI2
aI2
aI2
aI1
aI2
aI0
aI2
aI0
aI0
aI0
aI1
aI0
aa(lp119
I2
aI2
aI2
aI1
aI2
aI0
aI0
aI2
aI1
aI0
aI0
aI0
aI2
aI1
aI0
aI1
aI1
aI2
aI0
aI1
aI1
aI2
aI0
aI2
aI1
aI1
aI1
aI0
aI1
aI2
aI2
aI0
aI2
aa(lp120
I1
aI2
aI0
aI0
aI1
aI1
aI0
aI0
aI0
aI2
aI0
aI1
aI0
aI1
aI1
aI1
aI0
aI0
aI1
aI1
aI1
aI1
aI0
aI2
aI1
aI1
aI2
aI2
aI1
aI0
aI1
aI0
aI2
aa(lp121
I2
aI2
aI1
aI2
aI2
aI1
aI0
aI1
aI0
aI1
aI1
aI1
aI2
aI0
aI0
aI0
aI2
aI0
aI1
aI2
aI0
aI1
aI1
aI2
aI2
aI0
aI1
aI1
aI2
aI2
aI2
aI2
aI0
aa(lp122
I1
aI2
aI2
aI2
aI2
aI2
aI0
aI0
aI1
aI0
aI0
aI1
aI2
aI1
aI1
aI2
aI1
aI2
aI2
aI1
aI1
aI0
aI1
aI0
aI2
aI1
aI2
aI2
aI1
aI0
aI1
aI0
aI1
aa(lp123
I1
aI2
aI1
aI1
aI0
aI1
aI0
aI0
aI1
aI0
aI0
aI2
aI0
aI1
aI1
aI2
aI0
aI1
aI0
aI0
aI0
aI0
aI0
aI0
aI0
aI1
aI1
aI1
aI2
aI1
aI1
aI2
aI1
aa(lp124
I2
aI0
aI0
aI1
aI2
aI2
aI2
aI2
aI2
aI1
aI0
aI1
aI2
aI0
aI2
aI2
aI0
aI0
aI0
aI1
aI0
aI1
aI2
aI1
aI1
aI1
aI1
aI1
aI2
aI2
aI1
aI1
aI2
aa(lp125
I2
aI0
aI1
aI2
aI0
aI2
aI2
aI1
aI2
aI2
aI1
aI2
aI2
aI1
aI2
aI2
aI2
aI0
aI1
aI0
aI2
aI0
aI2
aI0
aI1
aI2
aI1
aI1
aI0
aI0
aI2
aI1
aI2
aa(lp126
I0
aI2
aI0
aI2
aI0
aI2
aI2
aI0
aI1
aI0
aI1
aI2
aI1
aI1
aI1
aI0
aI2
aI0
aI2
aI0
aI1
aI0
aI2
aI1
aI0
aI1
aI2
aI0
aI2
aI1
aI2
aI2
aI2
aa(lp127
I0
aI1
aI0
aI2
aI2
aI0
aI1
aI2
aI0
aI0
aI2
aI2
aI0
aI2
aI1
aI1
aI1
aI0
aI1
aI2
aI0
aI0
aI0
aI2
aI2
aI2
aI0
aI2
aI1
aI0
aI2
aI2
aI0
aa(lp128
I0
aI1
aI0
aI1
aI0
aI0
aI1
aI2
aI0
aI1
aI1
aI2
aI1
aI2
aI2
aI0
aI1
aI1
aI1
aI0
aI0
aI1
aI0
aI1
aI0
aI2
aI0
aI0
aI2
aI0
aI1
aI0
aI2
aa(lp129
I2
aI0
aI1
aI1
aI1
aI2
aI2
aI0
aI0
aI2
aI1
aI2
aI2
aI2
aI1
aI1
aI1
aI1
aI1
aI2
aI2
aI0
aI0
aI1
aI0
aI2
aI1
aI2
aI2
aI1
aI0
aI2
aI0
aa(lp130
I0
aI1
aI2
aI2
aI1
aI2
aI0
aI1
aI1
aI2
aI0
aI2
aI1
aI1
aI0
aI0
aI2
aI1
aI1
aI2
aI2
aI0
aI2
aI0
aI2
aI0
aI1
aI0
aI0
aI1
aI0
aI1
aI2
aa(lp131
I0
aI2
aI2
aI1
aI0
aI2
aI0
aI0
aI0
aI2
aI2
aI0
aI2
aI2
aI1
aI0
aI2
aI1
aI0
aI2
aI0
aI1
aI0
aI1
aI0
aI1
aI1
aI1
aI1
aI2
aI2
aI1
aI0
aa(lp132
I1
aI0
aI0
aI0
aI0
aI2
aI2
aI2
aI1
aI2
aI2
aI1
aI0
aI0
aI0
aI0
aI1
aI2
aI0
aI2
aI0
aI1
aI1
aI0
aI2
aI1
aI2
aI1
aI1
aI2
aI1
aI2
aI1
aa(lp133
I2
aI0
aI2
aI2
aI2
aI1
aI0
aI1
aI0
aI0
aI1
aI2
aI1
aI1
aI1
aI1
aI1
aI0
aI1
aI0
aI1
aI2
aI0
aI1
aI1
aI0
aI1
aI0
aI0
aI1
aI2
aI2
aI0
aa(lp134
I2
aI1
aI0
aI1
aI2
aI0
aI2
aI1
aI0
aI1
aI1
aI0
aI2
aI2
aI1
aI2
aI2
aI0
aI0
aI2
aI1
aI2
aI2
aI1
aI2
aI2
aI0
aI2
aI1
aI0
aI0
aI2
aI1
aa(lp135
I0
aI0
aI0
aI0
aI0
aI1
aI0
aI0
aI1
aI0
aI0
aI1
aI1
aI0
aI2
aI1
aI0
aI0
aI2
aI2
aI1
aI0
aI1
aI0
aI0
aI2
aI1
aI1
aI2
aI1
aI1
aI2
aI1
aa(lp136
I0
aI0
aI1
aI2
aI2
aI2
aI1
aI2
aI1
aI1
aI2
aI1
aI2
aI2
aI2
aI2
aI2
aI0
aI1
aI2
aI1
aI2
aI2
aI2
aI1
aI0
aI1
aI0
aI2
aI0
aI2
aI1
aI0
aa(lp137
I1
aI0
aI1
aI1
aI2
aI2
aI2
aI0
aI1
aI2
aI0
aI2
aI1
aI1
aI2
aI2
aI1
aI1
aI1
aI1
aI1
aI2
aI2
aI0
aI1
aI0
aI1
aI0
aI2
aI1
aI1
aI0
aI1
aa(lp138
I0
aI1
aI2
aI1
aI0
aI2
aI0
aI1
aI2
aI0
aI1
aI0
aI1
aI1
aI1
aI2
aI1
aI1
aI1
aI0
aI0
aI1
aI0
aI0
aI0
aI1
aI2
aI0
aI0
aI0
aI1
aI0
aI2
aa(lp139
I2
aI2
aI2
aI2
aI2
aI2
aI1
aI1
aI0
aI2
aI1
aI2
aI1
aI0
aI2
aI1
aI0
aI1
aI2
aI1
aI0
aI0
aI1
aI1
aI1
aI1
aI2
aI2
aI0
aI1
aI1
aI2
aI1
aa(lp140
I2
aI2
aI0
aI0
aI1
aI1
aI0
aI1
aI2
aI0
aI0
aI2
aI0
aI1
aI0
aI2
aI1
aI2
aI1
aI0
aI0
aI2
aI0
aI2
aI2
aI2
aI1
aI2
aI0
aI1
aI2
aI0
aI2
aa(lp141
I0
aI0
aI1
aI0
aI0
aI2
aI1
aI1
aI0
aI2
aI1
aI0
aI2
aI1
aI0
aI2
aI1
aI1
aI0
aI2
aI0
aI2
aI1
aI0
aI0
aI2
aI1
aI2
aI0
aI1
aI0
aI1
aI0
aa(lp142
I2
aI0
aI0
aI1
aI1
aI0
aI1
aI1
aI2
aI0
aI1
aI1
aI0
aI1
aI2
aI0
aI2
aI0
aI1
aI2
aI1
aI0
aI1
aI2
aI2
aI2
aI1
aI0
aI2
aI2
aI1
aI2
aI0
aa(lp143
I0
aI0
aI2
aI2
aI0
aI2
aI0
aI0
aI1
aI1
aI1
aI2
aI2
aI0
aI0
aI2
aI2
aI1
aI1
aI1
aI0
aI1
aI1
aI1
aI2
aI0
aI0
aI2
aI0
aI0
aI1
aI0
aI0
aa(lp144
I2
aI2
aI1
aI2
aI2
aI0
aI0
aI0
aI1
aI0
aI0
aI0
aI2
aI0
aI2
aI0
aI0
aI0
aI2
aI0
aI0
aI0
aI0
aI0
aI0
aI2
aI0
aI1
aI0
aI1
aI2
aI2
aI1
aa(lp145
I2
aI0
aI1
aI0
aI0
aI0
aI1
aI0
aI1
aI1
aI0
aI0
aI0
aI0
aI1
aI1
aI2
aI0
aI1
aI1
aI1
aI2
aI2
aI0
aI0
aI0
aI2
aI0
aI2
aI2
aI0
aI1
aI0
aa(lp146
I2
aI2
aI1
aI0
aI0
aI1
aI0
aI0
aI2
aI2
aI1
aI0
aI1
aI2
aI0
aI2
aI2
aI0
aI2
aI2
aI1
aI1
aI0
aI1
aI1
aI1
aI1
aI1
aI2
aI2
aI1
aI2
aI2
aa(lp147
I2
aI0
aI1
aI0
aI2
aI1
aI0
aI2
aI0
aI0
aI1
aI1
aI1
aI2
aI2
aI0
aI0
aI0
aI2
aI0
aI2
aI1
aI0
aI1
aI2
aI0
aI1
aI0
aI2
aI0
aI2
aI0
aI0
aa(lp148
I1
aI2
aI0
aI0
aI2
aI0
aI1
aI2
aI0
aI1
aI1
aI2
aI2
aI2
aI0
aI2
aI1
aI2
aI2
aI1
aI2
aI0
aI1
aI1
aI2
aI2
aI2
aI1
aI0
aI1
aI2
aI0
aI0
aa(lp149
I1
aI2
aI2
aI1
aI0
aI0
aI1
aI0
aI1
aI2
aI0
aI1
aI2
aI1
aI0
aI2
aI1
aI1
aI0
aI1
aI0
aI1
aI1
aI2
aI1
aI0
aI2
aI0
aI1
aI2
aI2
aI2
aI1
aa(lp150
I1
aI0
aI2
aI0
aI1
aI2
aI0
aI2
aI2
aI2
aI2
aI2
aI0
aI1
aI2
aI0
aI2
aI1
aI1
aI1
aI2
aI1
aI1
aI0
aI0
aI0
aI1
aI0
aI1
aI1
aI2
aI2
aI0
aa(lp151
I1
aI0
aI2
aI0
aI2
aI1
aI2
aI1
aI2
aI0
aI2
aI1
aI1
aI0
aI0
aI2
aI2
aI1
aI2
aI0
aI1
aI0
aI0
aI2
aI2
aI0
aI0
aI0
aI1
aI2
aI1
aI2
aI2
aa(lp152
I1
aI2
aI2
aI0
aI2
aI2
aI2
aI2
aI2
aI2
aI2
aI1
aI1
aI0
aI0
aI1
aI2
aI1
aI1
aI2
aI1
aI2
aI2
aI1
aI1
aI0
aI0
aI0
aI2
aI2
aI2
aI1
aI2
aa(lp153
I0
aI0
aI1
aI1
aI1
aI2
aI0
aI1
aI2
aI1
aI1
aI0
aI0
aI2
aI2
aI2
aI1
aI2
aI2
aI0
aI1
aI2
aI2
aI1
aI2
aI1
aI2
aI1
aI1
aI2
aI2
aI1
aI1
aa(lp154
I2
aI1
aI1
aI2
aI0
aI0
aI0
aI0
aI0
aI1
aI0
aI2
aI0
aI2
aI1
aI2
aI1
aI1
aI1
aI1
aI0
aI2
aI2
aI0
aI1
aI0
aI0
aI2
aI1
aI1
aI2
aI0
aI0
aa(lp155
I1
aI0
aI0
aI1
aI2
aI2
aI1
aI1
aI1
aI2
aI2
aI1
aI0
aI1
aI0
aI0
aI2
aI2
aI2
aI0
aI2
aI1
aI0
aI2
aI1
aI2
aI1
aI0
aI2
aI0
aI1
aI2
aI2
aa(lp156
I0
aI1
aI0
aI0
aI2
aI0
aI0
aI0
aI0
aI0
aI1
aI0
aI2
aI2
aI1
aI2
aI1
aI1
aI0
aI0
aI1
aI0
aI2
aI2
aI0
aI1
aI0
aI1
aI0
aI1
aI1
aI1
aI0
aa(lp157
I1
aI1
aI0
aI1
aI0
aI0
aI0
aI2
aI2
aI2
aI2
aI1
aI1
aI1
aI2
aI2
aI0
aI1
aI2
aI1
aI2
aI0
aI1
aI0
aI1
aI2
aI0
aI1
aI1
aI1
aI2
aI0
aI2
aa(lp158
I1
aI2
aI0
aI1
aI2
aI0
aI2
aI2
aI0
aI2
aI2
aI2
aI0
aI1
aI1
aI0
aI2
aI2
aI1
aI0
aI1
aI2
aI0
aI2
aI0
aI2
aI1
aI1
aI1
aI0
aI2
aI0
aI2
aa(lp159
I0
aI1
aI2
aI1
aI0
aI1
aI0
aI1
aI2
aI0
aI1
aI2
aI0
aI1
aI0
aI0
aI1
aI0
aI0
aI0
aI1
aI2
aI1
aI0
aI2
aI1
aI2
aI0
aI2
aI2
aI2
aI0
aI0
aa(lp160
I1
aI0
aI1
aI2
aI0
aI1
aI2
aI0
aI0
aI1
aI2
aI2
aI2
aI1
aI0
aI1
aI0
aI2
aI0
aI2
aI0
aI1
aI2
aI2
aI0
aI2
aI1
aI2
aI2
aI2
aI2
aI0
aI0
aa(lp161
I1
aI2
aI2
aI1
aI2
aI2
aI1
aI0
aI1
aI1
aI1
aI1
aI2
aI0
aI2
aI0
aI1
aI0
aI2
aI2
aI1
aI1
aI1
aI2
aI1
aI1
aI0
aI0
aI2
aI2
aI1
aI1
aI1
aa(lp162
I0
aI0
aI2
aI0
aI0
aI2
aI2
aI0
aI1
aI2
aI2
aI0
aI1
aI0
aI1
aI2
aI2
aI0
aI1
aI0
aI2
aI2
aI2
aI2
aI0
aI0
aI2
aI2
aI2
aI1
aI1
aI2
aI0
aa(lp163
I0
aI2
aI0
aI1
aI0
aI2
aI1
aI1
aI2
aI0
aI2
aI2
aI0
aI0
aI1
aI2
aI0
aI0
aI0
aI0
aI1
aI0
aI0
aI0
aI0
aI0
aI1
aI0
aI2
aI1
aI2
aI1
aI1
aa(lp164
I2
aI1
aI2
aI1
aI0
aI1
aI2
aI0
aI1
aI0
aI1
aI1
aI2
aI0
aI2
aI1
aI2
aI0
aI2
aI2
aI2
aI1
aI2
aI1
aI1
aI1
aI1
aI0
aI2
aI2
aI0
aI0
aI2
aa(lp165
I1
aI2
aI1
aI2
aI1
aI1
aI0
aI1
aI2
aI1
aI1
aI1
aI2
aI2
aI0
aI1
aI2
aI0
aI2
aI2
aI2
aI1
aI2
aI0
aI2
aI2
aI1
aI1
aI0
aI0
aI1
aI2
aI2
aa(lp166
I1
aI0
aI0
aI1
aI2
aI1
aI0
aI0
aI0
aI0
aI1
aI1
aI2
aI2
aI0
aI0
aI2
aI0
aI2
aI2
aI2
aI1
aI1
aI1
aI2
aI2
aI1
aI2
aI2
aI1
aI1
aI1
aI2
aa(lp167
I0
aI1
aI1
aI1
aI2
aI2
aI2
aI2
aI1
aI2
aI2
aI2
aI0
aI1
aI2
aI1
aI2
aI2
aI0
aI1
aI0
aI2
aI1
aI2
aI2
aI2
aI0
aI2
aI0
aI0
aI2
aI1
aI1
aa(lp168
I0
aI0
aI2
aI1
aI0
aI0
aI2
aI0
aI1
aI0
aI1
aI1
aI1
aI0
aI2
aI0
aI0
aI0
aI2
aI0
aI2
aI1
aI0
aI1
aI1
aI1
aI0
aI0
aI0
aI1
aI2
aI2
aI1
aa(lp169
I2
aI1
aI1
aI1
aI2
aI1
aI1
aI2
aI0
aI2
aI0
aI2
aI1
aI0
aI1
aI1
aI2
aI1
aI1
aI1
aI0
aI1
aI0
aI2
aI1
aI0
aI2
aI1
aI1
aI0
aI2
aI1
aI2
aa(lp170
I2
aI1
aI1
aI0
aI2
aI1
aI1
aI2
aI0
aI2
aI0
aI2
aI0
aI1
aI1
aI2
aI0
aI0
aI0
aI1
aI0
aI0
aI2
aI0
aI2
aI0
aI0
aI0
aI1
aI0
aI2
aI0
aI0
aa(lp171
I2
aI2
aI1
aI0
aI1
aI0
aI1
aI2
aI2
aI2
aI1
aI2
aI1
aI0
aI0
aI2
aI1
aI1
aI1
aI1
aI1
aI2
aI1
aI1
aI0
aI0
aI2
aI2
aI1
aI2
aI2
aI2
aI2
aa(lp172
I2
aI0
aI2
aI0
aI0
aI0
aI2
aI1
aI2
aI0
aI2
aI0
aI1
aI2
aI1
aI0
aI0
aI1
aI2
aI2
aI2
aI1
aI2
aI2
aI1
aI2
aI1
aI1
aI0
aI0
aI1
aI1
aI2
aa(lp173
I0
aI0
aI1
aI2
aI0
aI2
aI0
aI2
aI1
aI0
aI0
aI1
aI1
aI1
aI2
aI2
aI2
aI2
aI1
aI0
aI1
aI2
aI2
aI2
aI2
aI2
aI0
aI1
aI2
aI1
aI2
aI0
aI2
aa(lp174
I1
aI0
aI0
aI1
aI2
aI2
aI1
aI0
aI0
aI1
aI0
aI1
aI2
aI1
aI1
aI1
aI0
aI0
aI0
aI0
aI2
aI0
aI1
aI0
aI2
aI0
aI2
aI2
aI1
aI1
aI1
aI2
aI1
aa(lp175
I0
aI2
aI1
aI1
aI1
aI2
aI2
aI2
aI2
aI1
aI1
aI0
aI1
aI0
aI1
aI1
aI0
aI2
aI0
aI0
aI0
aI1
aI0
aI2
aI1
aI2
aI2
aI0
aI0
aI0
aI0
aI0
aI1
aa(lp176
I1
aI1
aI2
aI0
aI1
aI1
aI2
aI2
aI0
aI2
aI2
aI2
aI0
aI0
aI2
aI0
aI1
aI1
aI0
aI2
aI1
aI1
aI1
aI0
aI1
aI0
aI1
aI0
aI2
aI2
aI1
aI2
aI2
aa(lp177
I2
aI0
aI1
aI2
aI2
aI1
aI2
aI2
aI0
aI2
aI2
aI2
aI1
aI0
aI2
aI1
aI0
aI1
aI1
aI0
aI2
aI1
aI1
aI2
aI0
aI1
aI2
aI1
aI0
aI0
aI2
aI2
aI1
aa(lp178
I1
aI2
aI1
aI2
aI1
aI2
aI2
aI1
aI0
aI1
aI0
aI2
aI2
aI2
aI0
aI2
aI0
aI1
aI0
aI2
aI2
aI0
aI0
aI0
aI2
aI1
aI1
aI2
aI1
aI2
aI1
aI2
aI0
aa(lp179
I2
aI0
aI2
aI1
aI0
aI2
aI2
aI0
aI0
aI0
aI2
aI0
aI0
aI1
aI2
aI2
aI1
aI2
aI2
aI1
aI2
aI0
aI2
aI0
aI0
aI0
aI0
aI0
aI1
aI1
aI0
aI0
aI1
aa(lp180
I1
aI0
aI0
aI1
aI1
aI1
aI0
aI0
aI0
aI2
aI0
aI2
aI0
aI1
aI1
aI2
aI2
aI0
aI2
aI0
aI0
aI1
aI1
aI2
aI0
aI0
aI1
aI2
aI0
aI1
aI1
aI0
aI1
aa(lp181
I2
aI0
aI0
aI0
aI0
aI0
aI1
aI2
aI1
aI2
aI1
aI0
aI0
aI2
aI0
aI1
aI0
aI0
aI2
aI0
aI0
aI0
aI1
aI1
aI2
aI1
aI2
aI0
aI0
aI2
aI2
aI0
aI0
aa(lp182
I0
aI2
aI1
aI0
aI0
aI0
aI2
aI1
aI0
aI2
aI1
aI0
aI2
aI1
aI0
aI2
aI0
aI2
aI1
aI2
aI1
aI1
aI1
aI1
aI0
aI2
aI0
aI1
aI0
aI0
aI0
aI0
aI1
aa(lp183
I1
aI0
aI2
aI2
aI1
aI1
aI1
aI2
aI1
aI0
aI0
aI0
aI0
aI1
aI0
aI0
aI1
aI0
aI0
aI0
aI0
aI0
aI2
aI1
aI0
aI0
aI0
aI0
aI2
aI0
aI0
aI0
aI2
aa(lp184
I1
aI1
aI2
aI2
aI1
aI0
aI2
aI2
aI1
aI1
aI2
aI1
aI2
aI1
aI0
aI2
aI0
aI1
aI0
aI2
aI2
aI2
aI2
aI2
aI0
aI2
aI1
aI0
aI1
aI2
aI0
aI2
aI1
aa(lp185
I2
aI1
aI1
aI2
aI2
aI1
aI2
aI2
aI2
aI2
aI2
aI2
aI1
aI0
aI0
aI0
aI1
aI2
aI2
aI1
aI0
aI1
aI2
aI0
aI1
aI2
aI0
aI0
aI1
aI2
aI2
aI2
aI2
aa(lp186
I2
aI0
aI2
aI1
aI1
aI1
aI1
aI1
aI2
aI1
aI0
aI1
aI1
aI1
aI1
aI1
aI0
aI1
aI2
aI0
aI0
aI0
aI0
aI0
aI1
aI2
aI0
aI0
aI2
aI1
aI0
aI0
aI2
aa(lp187
I2
aI2
aI0
aI0
aI0
aI1
aI0
aI2
aI1
aI0
aI0
aI2
aI1
aI1
aI1
aI0
aI0
aI0
aI2
aI0
aI1
aI0
aI2
aI1
aI1
aI1
aI2
aI1
aI1
aI0
aI1
aI0
aI1
aa(lp188
I2
aI2
aI1
aI1
aI1
aI2
aI0
aI0
aI1
aI2
aI0
aI2
aI2
aI1
aI1
aI2
aI2
aI1
aI1
aI2
aI2
aI1
aI2
aI1
aI0
aI1
aI1
aI2
aI1
aI1
aI1
aI1
aI2
aa(lp189
I0
aI1
aI2
aI0
aI1
aI1
aI0
aI0
aI0
aI1
aI0
aI1
aI0
aI0
aI1
aI0
aI2
aI2
aI2
aI1
aI0
aI2
aI0
aI2
aI1
aI1
aI0
aI0
aI0
aI2
aI0
aI0
aI0
aa(lp190
I0
aI2
aI0
aI0
aI0
aI2
aI0
aI1
aI1
aI2
aI1
aI2
aI0
aI0
aI0
aI2
aI0
aI0
aI1
aI1
aI0
aI2
aI0
aI1
aI0
aI1
aI0
aI0
aI0
aI0
aI0
aI0
aI0
aa(lp191
I1
aI1
aI0
aI0
aI2
aI2
aI2
aI1
aI1
aI0
aI2
aI1
aI0
aI2
aI1
aI0
aI0
aI0
aI0
aI1
aI2
aI0
aI2
aI0
aI0
aI1
aI0
aI0
aI2
aI2
aI0
aI0
aI2
aa(lp192
I2
aI2
aI0
aI2
aI0
aI0
aI2
aI0
aI2
aI2
aI1
aI2
aI2
aI2
aI0
aI1
aI2
aI2
aI0
aI1
aI1
aI2
aI0
aI2
aI2
aI2
aI2
aI2
aI2
aI1
aI0
aI0
aI2
aa(lp193
I0
aI0
aI0
aI2
aI0
aI0
aI2
aI2
aI1
aI0
aI0
aI2
aI0
aI1
aI1
aI2
aI0
aI1
aI1
aI0
aI0
aI1
aI2
aI1
aI0
aI0
aI1
aI2
aI2
aI0
aI0
aI2
aI0
aa(lp194
I0
aI0
aI0
aI0
aI2
aI1
aI1
aI0
aI1
aI2
aI0
aI1
aI0
aI0
aI0
aI2
aI2
aI2
aI0
aI2
aI0
aI0
aI0
aI1
aI1
aI0
aI1
aI0
aI2
aI1
aI1
aI1
aI1
aa(lp195
I1
aI0
aI0
aI2
aI1
aI1
aI2
aI2
aI1
aI1
aI1
aI1
aI2
aI2
aI0
aI2
aI2
aI0
aI2
aI0
aI1
aI1
aI2
aI2
aI2
aI2
aI1
aI1
aI0
aI0
aI2
aI1
aI1
aa(lp196
I0
aI1
aI0
aI1
aI1
aI1
aI1
aI2
aI2
aI2
aI1
aI0
aI1
aI2
aI2
aI0
aI2
aI2
aI1
aI1
aI0
aI1
aI1
aI1
aI2
aI0
aI2
aI1
aI2
aI1
aI2
aI2
aI2
aa(lp197
I1
aI0
aI2
aI1
aI1
aI2
aI0
aI0
aI1
aI0
aI1
aI0
aI0
aI0
aI1
aI1
aI0
aI1
aI2
aI2
aI1
aI1
aI1
aI1
aI0
aI0
aI0
aI2
aI0
aI0
aI1
aI1
aI2
aa(lp198
I1
aI0
aI2
aI1
aI0
aI1
aI2
aI1
aI0
aI0
aI1
aI1
aI0
aI1
aI1
aI1
aI0
aI1
aI0
aI1
aI0
aI1
aI2
aI2
aI0
aI0
aI2
aI0
aI1
aI1
aI0
aI0
aI2
aa(lp199
I2
aI1
aI1
aI2
aI1
aI2
aI1
aI2
aI2
aI1
aI2
aI0
aI0
aI2
aI0
aI1
aI1
aI2
aI1
aI0
aI2
aI2
aI1
aI2
aI1
aI2
aI0
aI1
aI0
aI2
aI0
aI1
aI2
aa(lp200
I0
aI1
aI2
aI2
aI2
aI1
aI1
aI2
aI1
aI2
aI1
aI2
aI2
aI1
aI1
aI1
aI1
aI0
aI1
aI1
aI0
aI1
aI2
aI1
aI2
aI0
aI1
aI2
aI0
aI2
aI1
aI2
aI0
aa(lp201
I0
aI1
aI1
aI2
aI0
aI1
aI0
aI1
aI0
aI0
aI0
aI2
aI1
aI0
aI1
aI0
aI2
aI2
aI0
aI1
aI0
aI0
aI0
aI2
aI1
aI1
aI0
aI2
aI2
aI0
aI0
aI1
aI2
aa(lp202
I0
aI1
aI0
aI0
aI0
aI2
aI1
aI2
aI1
aI0
aI2
aI1
aI0
aI1
aI1
aI2
aI0
aI2
aI1
aI2
aI2
aI2
aI2
aI0
aI2
aI2
aI1
aI1
aI1
aI2
aI2
aI2
aI1
aa(lp203
I2
aI1
aI0
aI2
aI0
aI0
aI2
aI1
aI2
aI1
aI2
aI0
aI0
aI2
aI1
aI1
aI2
aI2
aI0
aI0
aI1
aI2
aI2
aI2
aI2
aI1
aI2
aI0
aI1
aI0
aI2
aI2
aI2
aa(lp204
I2
aI2
aI2
aI1
aI2
aI2
aI2
aI1
aI1
aI1
aI2
aI2
aI1
aI1
aI1
aI2
aI2
aI1
aI2
aI2
aI2
aI2
aI1
aI2
aI1
aI1
aI1
aI2
aI2
aI1
aI1
aI1
aI2
aa(lp205
I2
aI0
aI0
aI1
aI1
aI0
aI2
aI0
aI1
aI1
aI1
aI0
aI1
aI0
aI2
aI0
aI2
aI0
aI0
aI0
aI1
aI1
aI1
aI1
aI1
aI0
aI0
aI1
aI1
aI1
aI0
aI1
aI2
aa(lp206
I1
aI2
aI1
aI1
aI1
aI2
aI2
aI1
aI1
aI0
aI2
aI0
aI0
aI0
aI0
aI2
aI1
aI0
aI0
aI2
aI0
aI1
aI1
aI2
aI2
aI1
aI2
aI2
aI2
aI2
aI2
aI2
aI2
aa(lp207
I0
aI0
aI1
aI2
aI1
aI1
aI0
aI0
aI1
aI0
aI2
aI1
aI1
aI0
aI1
aI1
aI1
aI0
aI1
aI2
aI0
aI0
aI0
aI0
aI0
aI1
aI2
aI0
aI0
aI0
aI2
aI0
aI2
aa(lp208
I0
aI1
aI0
aI0
aI0
aI0
aI1
aI0
aI0
aI2
aI1
aI2
aI0
aI0
aI1
aI2
aI0
aI1
aI0
aI0
aI1
aI1
aI1
aI1
aI0
aI1
aI2
aI1
aI0
aI2
aI0
aI0
aI1
aa(lp209
I2
aI2
aI2
aI1
aI2
aI0
aI2
aI0
aI2
aI2
aI2
aI0
aI2
aI2
aI0
aI0
aI0
aI2
aI0
aI1
aI2
aI1
aI2
aI1
aI1
aI2
aI2
aI0
aI2
aI2
aI2
aI0
aI1
aa(lp210
I2
aI2
aI1
aI1
aI0
aI0
aI1
aI1
aI1
aI2
aI0
aI2
aI0
aI0
aI0
aI0
aI1
aI0
aI2
aI1
aI0
aI0
aI1
aI1
aI1
aI2
aI1
aI1
aI1
aI0
aI1
aI0
aI0
aa(lp211
I2
aI0
aI2
aI1
aI0
aI1
aI2
aI2
aI2
aI0
aI1
aI0
aI2
aI0
aI2
aI2
aI1
aI1
aI1
aI2
aI0
aI1
aI2
aI2
aI2
aI1
aI1
aI1
aI1
aI1
aI2
aI2
aI2
aa(lp212
I0
aI2
aI0
aI0
aI0
aI0
aI1
aI1
aI2
aI1
aI0
aI1
aI1
aI0
aI1
aI0
aI0
aI0
aI0
aI0
aI0
aI0
aI0
aI0
aI0
aI2
aI2
aI0
aI0
aI0
aI1
aI1
aI1
aa(lp213
I2
aI2
aI2
aI0
aI1
aI1
aI0
aI2
aI1
aI2
aI1
aI1
aI0
aI2
aI2
aI0
aI1
aI0
aI2
aI2
aI1
aI2
aI2
aI0
aI2
aI2
aI0
aI2
aI0
aI1
aI2
aI2
aI2
aa(lp214
I2
aI1
aI2
aI1
aI2
aI1
aI2
aI1
aI2
aI1
aI2
aI1
aI1
aI2
aI2
aI0
aI1
aI1
aI1
aI0
aI0
aI2
aI2
aI1
aI2
aI0
aI2
aI1
aI0
aI0
aI2
aI1
aI1
aa(lp215
I1
aI1
aI2
aI0
aI1
aI2
aI1
aI2
aI1
aI2
aI2
aI2
aI2
aI2
aI1
aI0
aI2
aI1
aI0
aI0
aI2
aI0
aI0
aI2
aI2
aI2
aI1
aI2
aI0
aI1
aI2
aI2
aI1
aa(lp216
I2
aI2
aI1
aI1
aI1
aI2
aI0
aI2
aI0
aI0
aI2
aI0
aI2
aI2
aI2
aI1
aI1
aI1
aI2
aI2
aI2
aI0
aI2
aI2
aI1
aI1
aI2
aI0
aI1
aI0
aI2
aI2
aI1
aa(lp217
I2
aI2
aI2
aI2
aI2
aI2
aI2
aI2
aI1
aI2
aI0
aI0
aI2
aI2
aI1
aI1
aI1
aI2
aI0
aI2
aI0
aI2
aI0
aI2
aI2
aI2
aI1
aI2
aI2
aI2
aI2
aI1
aI1
aa(lp218
I0
aI2
aI1
aI0
aI2
aI1
aI0
aI0
aI1
aI2
aI0
aI0
aI1
aI0
aI2
aI1
aI1
aI0
aI1
aI0
aI1
aI0
aI1
aI0
aI1
aI0
aI1
aI1
aI2
aI1
aI1
aI0
aI0
aa(lp219
I0
aI1
aI2
aI0
aI0
aI1
aI2
aI1
aI2
aI2
aI0
aI2
aI2
aI1
aI2
aI1
aI2
aI1
aI2
aI0
aI1
aI2
aI1
aI2
aI1
aI0
aI0
aI1
aI2
aI2
aI2
aI2
aI1
aa(lp220
I2
aI2
aI2
aI1
aI0
aI0
aI2
aI2
aI2
aI1
aI1
aI2
aI0
aI1
aI1
aI2
aI1
aI1
aI2
aI2
aI2
aI0
aI0
aI2
aI2
aI1
aI1
aI0
aI2
aI1
aI1
aI1
aI2
aa(lp221
I0
aI1
aI2
aI1
aI0
aI2
aI1
aI1
aI1
aI0
aI0
aI2
aI1
aI0
aI2
aI0
aI2
aI0
aI1
aI0
aI1
aI0
aI2
aI1
aI1
aI0
aI1
aI0
aI0
aI0
aI0
aI0
aI0
aa(lp222
I2
aI1
aI0
aI0
aI2
aI2
aI2
aI0
aI2
aI0
aI1
aI2
aI0
aI0
aI0
aI1
aI2
aI0
aI0
aI0
aI0
aI1
aI1
aI0
aI0
aI0
aI0
aI1
aI0
aI0
aI0
aI0
aI2
aa(lp223
I0
aI0
aI1
aI0
aI0
aI0
aI1
aI0
aI2
aI1
aI0
aI0
aI1
aI0
aI0
aI1
aI0
aI2
aI2
aI1
aI0
aI1
aI2
aI1
aI0
aI0
aI2
aI1
aI1
aI0
aI2
aI0
aI2
aa(lp224
I2
aI2
aI2
aI2
aI1
aI2
aI0
aI2
aI1
aI2
aI2
aI1
aI2
aI0
aI0
aI2
aI2
aI2
aI0
aI0
aI0
aI1
aI1
aI1
aI0
aI2
aI2
aI1
aI1
aI2
aI0
aI1
aI2
aa(lp225
I2
aI2
aI2
aI2
aI2
aI1
aI1
aI2
aI1
aI1
aI1
aI0
aI0
aI2
aI1
aI0
aI2
aI1
aI2
aI2
aI1
aI1
aI2
aI1
aI1
aI0
aI1
aI1
aI0
aI2
aI0
aI2
aI2
aa(lp226
I2
aI0
aI2
aI1
aI1
aI2
aI2
aI0
aI0
aI1
aI1
aI2
aI1
aI2
aI2
aI2
aI0
aI0
aI1
aI2
aI1
aI2
aI2
aI1
aI1
aI1
aI0
aI2
aI1
aI2
aI2
aI1
aI1
aa(lp227
I1
aI0
aI1
aI0
aI1
aI0
aI0
aI0
aI1
aI1
aI2
aI1
aI2
aI1
aI0
aI1
aI0
aI2
aI0
aI2
aI0
aI1
aI0
aI2
aI1
aI0
aI2
aI1
aI0
aI0
aI1
aI0
aI0
aa(lp228
I2
aI0
aI1
aI0
aI1
aI2
aI0
aI0
aI0
aI0
aI1
aI1
aI0
aI1
aI0
aI0
aI0
aI0
aI1
aI1
aI1
aI1
aI0
aI1
aI0
aI2
aI2
aI0
aI1
aI1
aI0
aI1
aI1
aa(lp229
I1
aI1
aI1
aI1
aI0
aI0
aI0
aI0
aI1
aI1
aI2
aI1
aI2
aI0
aI2
aI0
aI0
aI1
aI0
aI0
aI1
aI0
aI0
aI1
aI1
aI2
aI1
aI0
aI0
aI0
aI1
aI0
aI0
aa(lp230
I2
aI0
aI2
aI1
aI0
aI0
aI1
aI1
aI2
aI0
aI2
aI1
aI0
aI1
aI0
aI2
aI0
aI0
aI0
aI1
aI1
aI0
aI0
aI1
aI1
aI1
aI1
aI1
aI0
aI0
aI0
aI1
aI1
aa(lp231
I1
aI0
aI0
aI0
aI0
aI1
aI0
aI1
aI0
aI2
aI0
aI0
aI1
aI2
aI0
aI2
aI1
aI0
aI0
aI1
aI1
aI1
aI2
aI0
aI0
aI1
aI0
aI1
aI0
aI2
aI1
aI1
aI2
aa(lp232
I1
aI0
aI1
aI1
aI1
aI2
aI0
aI1
aI1
aI1
aI0
aI1
aI1
aI0
aI0
aI0
aI0
aI0
aI2
aI2
aI0
aI1
aI0
aI1
aI0
aI0
aI0
aI1
aI0
aI1
aI2
aI1
aI0
aa(lp233
I2
aI0
aI0
aI0
aI0
aI0
aI2
aI1
aI1
aI2
aI0
aI1
aI1
aI0
aI0
aI0
aI0
aI0
aI0
aI0
aI0
aI0
aI1
aI2
aI2
aI0
aI0
aI0
aI1
aI1
aI2
aI1
aI1
aa(lp234
I2
aI0
aI0
aI2
aI1
aI0
aI1
aI1
aI1
aI0
aI1
aI0
aI0
aI1
aI2
aI0
aI2
aI0
aI0
aI0
aI0
aI1
aI1
aI0
aI1
aI0
aI2
aI0
aI1
aI0
aI0
aI0
aI1
aa(lp235
I1
aI0
aI1
aI2
aI2
aI1
aI0
aI2
aI2
aI0
aI0
aI0
aI0
aI2
aI1
aI2
aI2
aI2
aI2
aI2
aI2
aI2
aI2
aI1
aI1
aI0
aI1
aI2
aI1
aI2
aI1
aI0
aI2
aa(lp236
I2
aI2
aI2
aI2
aI1
aI2
aI1
aI0
aI1
aI1
aI2
aI0
aI1
aI2
aI2
aI2
aI1
aI1
aI2
aI1
aI2
aI1
aI0
aI0
aI0
aI2
aI0
aI1
aI2
aI2
aI0
aI2
aI1
aa(lp237
I0
aI0
aI2
aI2
aI2
aI1
aI1
aI2
aI2
aI2
aI2
aI1
aI2
aI2
aI2
aI1
aI1
aI2
aI1
aI1
aI0
aI2
aI2
aI1
aI0
aI2
aI2
aI1
aI2
aI2
aI2
aI0
aI2
aa(lp238
I1
aI2
aI0
aI1
aI2
aI2
aI2
aI1
aI2
aI2
aI0
aI1
aI2
aI0
aI2
aI0
aI1
aI1
aI1
aI2
aI1
aI1
aI1
aI2
aI1
aI2
aI2
aI1
aI2
aI1
aI1
aI2
aI2
aa(lp239
I1
aI1
aI0
aI0
aI1
aI1
aI0
aI0
aI0
aI0
aI1
aI2
aI0
aI1
aI1
aI0
aI0
aI2
aI0
aI1
aI0
aI2
aI1
aI0
aI1
aI0
aI1
aI2
aI0
aI0
aI2
aI1
aI0
aa(lp240
I2
aI0
aI0
aI1
aI0
aI0
aI1
aI2
aI1
aI0
aI1
aI0
aI2
aI0
aI0
aI2
aI1
aI0
aI0
aI1
aI1
aI0
aI0
aI2
aI1
aI0
aI1
aI2
aI0
aI1
aI0
aI0
aI0
aa(lp241
I2
aI1
aI2
aI2
aI1
aI0
aI2
aI2
aI2
aI2
aI2
aI1
aI1
aI2
aI2
aI2
aI0
aI2
aI2
aI0
aI2
aI1
aI1
aI0
aI2
aI1
aI2
aI1
aI1
aI2
aI2
aI0
aI0
aa(lp242
I1
aI0
aI1
aI2
aI1
aI0
aI1
aI1
aI2
aI1
aI1
aI1
aI0
aI0
aI0
aI1
aI0
aI0
aI2
aI0
aI0
aI0
aI1
aI0
aI2
aI1
aI0
aI0
aI1
aI0
aI0
aI1
aI1
aa(lp243
I1
aI1
aI1
aI0
aI2
aI0
aI0
aI0
aI0
aI0
aI0
aI0
aI0
aI1
aI0
aI1
aI2
aI0
aI0
aI0
aI0
aI0
aI2
aI1
aI1
aI0
aI1
aI2
aI0
aI2
aI1
aI1
aI2
aa(lp244
I1
aI1
aI2
aI1
aI2
aI2
aI2
aI2
aI2
aI2
aI1
aI1
aI0
aI1
aI2
aI2
aI1
aI2
aI0
aI2
aI2
aI2
aI1
aI1
aI2
aI2
aI2
aI0
aI2
aI2
aI2
aI0
aI1
aa(lp245
I2
aI2
aI2
aI1
aI2
aI2
aI2
aI2
aI1
aI0
aI1
aI1
aI1
aI2
aI2
aI0
aI2
aI2
aI0
aI0
aI0
aI1
aI2
aI2
aI0
aI0
aI2
aI2
aI2
aI1
aI1
aI2
aI1
aa(lp246
I0
aI0
aI0
aI0
aI0
aI0
aI1
aI1
aI1
aI2
aI0
aI0
aI0
aI1
aI0
aI1
aI2
aI0
aI0
aI2
aI1
aI2
aI1
aI2
aI0
aI0
aI0
aI0
aI2
aI0
aI2
aI0
aI1
aa(lp247
I1
aI0
aI0
aI0
aI1
aI0
aI1
aI1
aI2
aI1
aI0
aI0
aI1
aI1
aI0
aI2
aI0
aI1
aI1
aI0
aI1
aI0
aI0
aI1
aI0
aI0
aI2
aI2
aI1
aI0
aI0
aI0
aI1
aa(lp248
I1
aI0
aI0
aI0
aI2
aI0
aI0
aI1
aI2
aI0
aI1
aI2
aI0
aI1
aI1
aI2
aI0
aI0
aI0
aI2
aI1
aI1
aI0
aI1
aI0
aI0
aI1
aI0
aI2
aI1
aI0
aI1
aI0
aa(lp249
I2
aI1
aI2
aI2
aI0
aI1
aI0
aI1
aI2
aI1
aI2
aI0
aI2
aI2
aI0
aI0
aI2
aI2
aI2
aI2
aI2
aI1
aI0
aI0
aI2
aI1
aI2
aI2
aI1
aI1
aI2
aI2
aI1
aa(lp250
I1
aI0
aI2
aI1
aI1
aI1
aI0
aI1
aI1
aI1
aI0
aI2
aI0
aI0
aI0
aI1
aI0
aI0
aI2
aI0
aI1
aI0
aI0
aI2
aI1
aI1
aI0
aI0
aI0
aI2
aI0
aI0
aI1
aa(lp251
I0
aI0
aI0
aI2
aI2
aI1
aI2
aI2
aI0
aI2
aI1
aI0
aI0
aI1
aI0
aI0
aI2
aI0
aI0
aI0
aI0
aI0
aI2
aI0
aI1
aI0
aI0
aI0
aI0
aI0
aI2
aI1
aI1
aa(lp252
I2
aI2
aI2
aI2
aI1
aI2
aI2
aI2
aI2
aI0
aI1
aI2
aI0
aI2
aI1
aI0
aI1
aI0
aI2
aI0
aI0
aI2
aI0
aI1
aI0
aI2
aI1
aI2
aI2
aI2
aI1
aI2
aI2
aa(lp253
I2
aI1
aI1
aI1
aI2
aI2
aI2
aI0
aI2
aI2
aI2
aI1
aI1
aI1
aI2
aI0
aI1
aI1
aI2
aI1
aI2
aI1
aI2
aI1
aI1
aI0
aI1
aI2
aI1
aI1
aI1
aI1
aI2
aa(lp254
I2
aI2
aI2
aI1
aI0
aI0
aI1
aI0
aI0
aI0
aI1
aI0
aI1
aI0
aI2
aI2
aI0
aI0
aI0
aI2
aI0
aI0
aI1
aI0
aI1
aI0
aI0
aI0
aI0
aI1
aI1
aI1
aI2
aa(lp255
I0
aI0
aI2
aI1
aI2
aI0
aI2
aI0
aI0
aI0
aI0
aI0
aI1
aI0
aI0
aI1
aI1
aI1
aI0
aI2
aI0
aI0
aI0
aI2
aI2
aI0
aI2
aI2
aI1
aI0
aI0
aI1
aI0
aa(lp256
I2
aI2
aI2
aI2
aI2
aI2
aI2
aI2
aI2
aI0
aI2
aI2
aI0
aI1
aI2
aI0
aI2
aI2
aI0
aI0
aI1
aI2
aI0
aI1
aI2
aI2
aI2
aI2
aI2
aI2
aI2
aI1
aI0
aa(lp257
I0
aI2
aI0
aI0
aI2
aI0
aI0
aI0
aI0
aI2
aI0
aI0
aI0
aI1
aI0
aI2
aI1
aI1
aI1
aI0
aI0
aI2
aI0
aI0
aI2
aI0
aI1
aI0
aI0
aI1
aI2
aI0
aI0
aa(lp258
I1
aI2
aI2
aI2
aI2
aI2
aI0
aI1
aI0
aI2
aI2
aI1
aI1
aI1
aI0
aI2
aI1
aI2
aI2
aI0
aI2
aI2
aI2
aI1
aI1
aI2
aI1
aI2
aI2
aI1
aI2
aI0
aI0
aa(lp259
I2
aI2
aI2
aI0
aI1
aI2
aI1
aI1
aI0
aI0
aI2
aI1
aI2
aI2
aI2
aI2
aI2
aI1
aI2
aI1
aI2
aI0
aI1
aI0
aI2
aI2
aI1
aI0
aI1
aI2
aI1
aI2
aI1
aa(lp260
I2
aI2
aI0
aI2
aI1
aI2
aI2
aI2
aI1
aI1
aI1
aI1
aI0
aI0
aI1
aI0
aI0
aI2
aI2
aI1
aI2
aI2
aI1
aI2
aI1
aI2
aI1
aI1
aI2
aI2
aI2
aI2
aI2
aa(lp261
I0
aI1
aI0
aI1
aI1
aI1
aI1
aI0
aI0
aI0
aI0
aI0
aI0
aI1
aI1
aI1
aI0
aI0
aI0
aI2
aI2
aI0
aI2
aI0
aI0
aI0
aI1
aI1
aI0
aI0
aI1
aI2
aI1
aa(lp262
I1
aI2
aI1
aI1
aI0
aI2
aI0
aI0
aI0
aI1
aI1
aI1
aI1
aI2
aI0
aI0
aI1
aI2
aI0
aI1
aI1
aI1
aI0
aI0
aI0
aI2
aI0
aI0
aI0
aI0
aI1
aI1
aI0
aa(lp263
I2
aI1
aI0
aI2
aI0
aI2
aI2
aI2
aI2
aI1
aI1
aI2
aI2
aI1
aI2
aI2
aI1
aI2
aI2
aI2
aI0
aI2
aI1
aI2
aI2
aI2
aI1
aI0
aI0
aI1
aI0
aI1
aI1
aa(lp264
I0
aI0
aI1
aI0
aI2
aI0
aI0
aI0
aI0
aI0
aI0
aI0
aI0
aI1
aI1
aI2
aI0
aI0
aI2
aI0
aI0
aI2
aI1
aI0
aI1
aI2
aI0
aI1
aI2
aI0
aI0
aI1
aI1
aa(lp265
I2
aI2
aI0
aI1
aI2
aI1
aI0
aI1
aI2
aI2
aI2
aI2
aI2
aI2
aI1
aI1
aI2
aI2
aI2
aI2
aI2
aI2
aI1
aI2
aI0
aI1
aI0
aI1
aI0
aI0
aI2
aI2
aI2
aa(lp266
I1
aI2
aI2
aI2
aI2
aI2
aI0
aI2
aI1
aI1
aI2
aI1
aI0
aI0
aI2
aI2
aI2
aI1
aI0
aI1
aI2
aI1
aI2
aI2
aI2
aI2
aI0
aI2
aI2
aI1
aI0
aI0
aI1
aa(lp267
I1
aI0
aI1
aI0
aI1
aI1
aI0
aI0
aI2
aI0
aI1
aI0
aI0
aI0
aI1
aI0
aI2
aI0
aI0
aI1
aI1
aI1
aI1
aI2
aI2
aI0
aI0
aI1
aI1
aI0
aI1
aI1
aI1
aa(lp268
I2
aI2
aI2
aI0
aI1
aI2
aI2
aI1
aI0
aI2
aI0
aI2
aI2
aI1
aI1
aI2
aI2
aI2
aI1
aI1
aI2
aI2
aI0
aI0
aI2
aI1
aI0
aI2
aI2
aI1
aI2
aI2
aI1
aa(lp269
I1
aI2
aI2
aI1
aI2
aI2
aI1
aI1
aI1
aI1
aI2
aI0
aI2
aI0
aI0
aI1
aI2
aI2
aI2
aI1
aI2
aI2
aI1
aI1
aI1
aI0
aI2
aI2
aI2
aI1
aI1
aI2
aI2
aa(lp270
I1
aI2
aI1
aI2
aI2
aI2
aI2
aI1
aI2
aI1
aI1
aI1
aI2
aI0
aI2
aI1
aI0
aI0
aI2
aI1
aI0
aI2
aI2
aI2
aI2
aI1
aI1
aI2
aI2
aI2
aI1
aI0
aI2
aa(lp271
I2
aI1
aI0
aI2
aI1
aI1
aI2
aI1
aI2
aI1
aI2
aI2
aI2
aI0
aI2
aI1
aI2
aI2
aI2
aI2
aI0
aI1
aI2
aI2
aI2
aI2
aI2
aI1
aI1
aI0
aI2
aI1
aI2
aa(lp272
I1
aI2
aI1
aI1
aI2
aI0
aI1
aI0
aI0
aI1
aI1
aI0
aI1
aI0
aI0
aI1
aI0
aI0
aI2
aI1
aI0
aI0
aI0
aI0
aI1
aI1
aI0
aI1
aI0
aI0
aI1
aI0
aI2
aa(lp273
I1
aI2
aI2
aI2
aI2
aI1
aI2
aI1
aI2
aI2
aI2
aI0
aI2
aI1
aI2
aI2
aI2
aI2
aI0
aI2
aI1
aI1
aI0
aI2
aI1
aI1
aI1
aI2
aI2
aI2
aI1
aI0
aI2
aa(lp274
I1
aI1
aI2
aI1
aI1
aI2
aI2
aI2
aI2
aI2
aI0
aI1
aI1
aI1
aI2
aI0
aI2
aI2
aI2
aI2
aI1
aI0
aI2
aI2
aI1
aI2
aI1
aI1
aI2
aI1
aI2
aI0
aI1
aa(lp275
I2
aI0
aI1
aI2
aI0
aI0
aI2
aI2
aI1
aI2
aI2
aI2
aI2
aI2
aI0
aI2
aI2
aI0
aI1
aI1
aI1
aI2
aI2
aI2
aI0
aI2
aI0
aI2
aI2
aI0
aI1
aI1
aI2
aa(lp276
I1
aI2
aI1
aI2
aI2
aI2
aI2
aI0
aI1
aI2
aI2
aI2
aI1
aI2
aI2
aI1
aI2
aI1
aI0
aI2
aI2
aI1
aI2
aI2
aI1
aI0
aI1
aI1
aI0
aI2
aI0
aI1
aI0
aa(lp277
I1
aI0
aI1
aI2
aI1
aI2
aI0
aI0
aI2
aI2
aI0
aI2
aI0
aI2
aI2
aI2
aI2
aI2
aI1
aI1
aI1
aI1
aI0
aI1
aI1
aI2
aI1
aI2
aI2
aI2
aI2
aI2
aI2
aa(lp278
I0
aI2
aI1
aI2
aI2
aI1
aI1
aI1
aI2
aI2
aI2
aI1
aI2
aI1
aI2
aI2
aI2
aI2
aI0
aI1
aI0
aI1
aI2
aI0
aI1
aI0
aI2
aI2
aI1
aI2
aI2
aI0
aI2
aa(lp279
I0
aI1
aI0
aI1
aI2
aI0
aI0
aI1
aI1
aI0
aI0
aI0
aI1
aI2
aI0
aI0
aI1
aI1
aI2
aI1
aI1
aI0
aI1
aI0
aI1
aI0
aI2
aI1
aI0
aI1
aI0
aI0
aI0
aa(lp280
I2
aI0
aI2
aI2
aI2
aI0
aI1
aI2
aI2
aI1
aI2
aI2
aI0
aI1
aI2
aI2
aI2
aI1
aI2
aI0
aI0
aI2
aI0
aI2
aI1
aI1
aI2
aI2
aI2
aI2
aI2
aI1
aI1
aa(lp281
I2
aI0
aI1
aI1
aI2
aI0
aI2
aI1
aI2
aI2
aI2
aI0
aI1
aI2
aI2
aI2
aI2
aI2
aI1
aI1
aI2
aI2
aI1
aI1
aI2
aI2
aI1
aI2
aI1
aI0
aI1
aI2
aI1
aa(lp282
I2
aI0
aI2
aI0
aI0
aI1
aI1
aI0
aI0
aI0
aI0
aI0
aI2
aI0
aI0
aI0
aI0
aI0
aI2
aI1
aI0
aI1
aI0
aI0
aI1
aI2
aI2
aI0
aI1
aI0
aI2
aI0
aI1
aa(lp283
I1
aI2
aI0
aI2
aI1
aI1
aI2
aI2
aI1
aI2
aI0
aI0
aI2
aI2
aI2
aI0
aI2
aI2
aI2
aI1
aI2
aI1
aI2
aI0
aI1
aI2
aI2
aI1
aI2
aI2
aI0
aI1
aI1
aa(lp284
I2
aI2
aI1
aI2
aI2
aI2
aI2
aI2
aI2
aI2
aI0
aI1
aI1
aI1
aI2
aI1
aI1
aI0
aI1
aI1
aI1
aI1
aI2
aI1
aI1
aI1
aI1
aI1
aI2
aI2
aI2
aI2
aI2
aa(lp285
I0
aI1
aI1
aI2
aI0
aI2
aI0
aI1
aI2
aI1
aI0
aI0
aI1
aI0
aI1
aI1
aI0
aI0
aI1
aI0
aI0
aI2
aI0
aI0
aI0
aI0
aI2
aI0
aI2
aI0
aI0
aI0
aI0
aa(lp286
I0
aI2
aI0
aI1
aI0
aI0
aI2
aI1
aI1
aI1
aI0
aI1
aI0
aI0
aI0
aI0
aI1
aI0
aI2
aI0
aI1
aI0
aI0
aI0
aI0
aI2
aI0
aI1
aI1
aI2
aI1
aI1
aI0
aa(lp287
I0
aI0
aI1
aI0
aI2
aI2
aI0
aI0
aI0
aI0
aI0
aI2
aI2
aI0
aI1
aI0
aI0
aI0
aI0
aI1
aI0
aI0
aI1
aI0
aI2
aI1
aI0
aI2
aI0
aI0
aI2
aI0
aI0
aa(lp288
I1
aI1
aI0
aI0
aI0
aI2
aI0
aI0
aI1
aI0
aI2
aI1
aI0
aI0
aI0
aI0
aI0
aI0
aI0
aI0
aI0
aI1
aI1
aI2
aI2
aI0
aI2
aI1
aI2
aI1
aI0
aI1
aI0
aa(lp289
I1
aI2
aI2
aI2
aI1
aI2
aI1
aI2
aI2
aI2
aI1
aI1
aI2
aI2
aI2
aI2
aI2
aI1
aI0
aI0
aI2
aI1
aI1
aI2
aI2
aI2
aI2
aI2
aI0
aI2
aI2
aI2
aI1
aa(lp290
I0
aI2
aI0
aI0
aI0
aI2
aI0
aI2
aI2
aI0
aI1
aI0
aI0
aI0
aI0
aI0
aI1
aI0
aI1
aI0
aI0
aI1
aI2
aI0
aI0
aI1
aI2
aI0
aI0
aI0
aI1
aI1
aI0
aa(lp291
I1
aI0
aI2
aI1
aI2
aI1
aI1
aI0
aI2
aI0
aI2
aI1
aI0
aI0
aI0
aI0
aI0
aI0
aI0
aI0
aI0
aI1
aI0
aI0
aI0
aI0
aI0
aI0
aI0
aI0
aI2
aI0
aI2
aa(lp292
I1
aI1
aI2
aI2
aI1
aI0
aI1
aI2
aI2
aI2
aI2
aI1
aI2
aI1
aI2
aI2
aI1
aI2
aI1
aI0
aI2
aI0
aI1
aI2
aI1
aI0
aI2
aI2
aI2
aI1
aI1
aI1
aI2
aa(lp293
I2
aI1
aI2
aI0
aI0
aI2
aI2
aI1
aI2
aI1
aI0
aI2
aI2
aI2
aI2
aI0
aI2
aI1
aI1
aI2
aI0
aI2
aI1
aI2
aI2
aI1
aI0
aI2
aI1
aI1
aI1
aI2
aI2
aa(lp294
I2
aI2
aI2
aI2
aI1
aI2
aI1
aI2
aI2
aI0
aI2
aI1
aI1
aI0
aI1
aI0
aI2
aI1
aI2
aI0
aI1
aI2
aI1
aI1
aI1
aI2
aI0
aI2
aI1
aI2
aI2
aI2
aI2
aa(lp295
I1
aI1
aI0
aI1
aI1
aI2
aI2
aI0
aI1
aI1
aI2
aI2
aI2
aI1
aI2
aI2
aI0
aI2
aI1
aI1
aI2
aI2
aI2
aI2
aI2
aI2
aI2
aI1
aI0
aI1
aI2
aI0
aI1
aa(lp296
I2
aI1
aI1
aI1
aI1
aI1
aI2
aI2
aI2
aI1
aI2
aI2
aI1
aI2
aI0
aI0
aI2
aI2
aI2
aI1
aI2
aI0
aI2
aI2
aI1
aI1
aI2
aI2
aI2
aI2
aI2
aI0
aI2
aa(lp297
I2
aI2
aI2
aI0
aI2
aI1
aI2
aI1
aI0
aI1
aI2
aI2
aI2
aI2
aI0
aI2
aI2
aI2
aI0
aI1
aI2
aI0
aI2
aI2
aI2
aI0
aI2
aI2
aI1
aI2
aI1
aI1
aI1
aa(lp298
I2
aI0
aI2
aI0
aI2
aI1
aI1
aI0
aI2
aI1
aI2
aI2
aI2
aI1
aI2
aI2
aI1
aI2
aI1
aI1
aI2
aI2
aI1
aI1
aI2
aI2
aI1
aI0
aI0
aI1
aI2
aI2
aI2
aa(lp299
I2
aI1
aI0
aI0
aI0
aI0
aI0
aI0
aI1
aI1
aI1
aI0
aI2
aI1
aI0
aI1
aI0
aI0
aI1
aI0
aI2
aI0
aI2
aI2
aI0
aI1
aI2
aI0
aI0
aI0
aI0
aI0
aI1
aa(lp300
I0
aI0
aI0
aI0
aI2
aI0
aI0
aI2
aI1
aI0
aI0
aI0
aI0
aI0
aI0
aI0
aI0
aI0
aI1
aI1
aI1
aI0
aI0
aI1
aI1
aI0
aI1
aI0
aI0
aI2
aI2
aI1
aI1
aa(lp301
I2
aI2
aI0
aI1
aI0
aI0
aI0
aI0
aI0
aI2
aI1
aI0
aI1
aI1
aI1
aI0
aI0
aI2
aI2
aI1
aI0
aI0
aI1
aI0
aI0
aI1
aI1
aI0
aI0
aI2
aI0
aI0
aI0
aa(lp302
I2
aI2
aI2
aI1
aI1
aI2
aI2
aI2
aI2
aI2
aI0
aI1
aI2
aI0
aI1
aI2
aI1
aI0
aI1
aI2
aI2
aI2
aI2
aI0
aI2
aI2
aI0
aI1
aI1
aI0
aI2
aI2
aI2
aa(lp303
I0
aI2
aI2
aI0
aI2
aI2
aI1
aI1
aI2
aI2
aI1
aI0
aI2
aI2
aI1
aI0
aI2
aI2
aI2
aI2
aI0
aI1
aI2
aI2
aI1
aI1
aI2
aI0
aI0
aI2
aI2
aI2
aI2
aa(lp304
I0
aI2
aI2
aI1
aI1
aI1
aI2
aI2
aI2
aI2
aI1
aI1
aI0
aI1
aI2
aI2
aI2
aI0
aI2
aI2
aI1
aI0
aI2
aI2
aI2
aI1
aI2
aI1
aI2
aI0
aI1
aI2
aI0
aa(lp305
I2
aI2
aI1
aI2
aI0
aI0
aI2
aI2
aI2
aI2
aI1
aI2
aI1
aI2
aI1
aI0
aI1
aI2
aI0
aI2
aI0
aI2
aI0
aI2
aI1
aI2
aI1
aI2
aI0
aI1
aI2
aI2
aI2
aa(lp306
I1
aI2
aI2
aI0
aI0
aI2
aI2
aI1
aI2
aI2
aI1
aI1
aI0
aI2
aI2
aI2
aI2
aI0
aI1
aI2
aI2
aI1
aI2
aI2
aI2
aI2
aI0
aI1
aI1
aI2
aI2
aI0
aI2
aa(lp307
I2
aI2
aI0
aI2
aI2
aI2
aI1
aI2
aI1
aI2
aI2
aI1
aI2
aI2
aI1
aI0
aI1
aI2
aI1
aI2
aI2
aI1
aI2
aI0
aI1
aI1
aI2
aI1
aI2
aI2
aI2
aI1
aI2
aa(lp308
I0
aI1
aI0
aI1
aI0
aI1
aI0
aI2
aI1
aI1
aI0
aI2
aI0
aI0
aI2
aI0
aI1
aI0
aI1
aI0
aI0
aI0
aI1
aI2
aI0
aI0
aI0
aI0
aI2
aI0
aI1
aI0
aI0
aa(lp309
I0
aI0
aI1
aI1
aI1
aI0
aI0
aI1
aI0
aI1
aI0
aI0
aI0
aI0
aI1
aI0
aI0
aI0
aI0
aI0
aI2
aI0
aI0
aI2
aI2
aI0
aI0
aI1
aI2
aI2
aI0
aI1
aI0
aa(lp310
I0
aI2
aI1
aI2
aI2
aI1
aI2
aI2
aI1
aI2
aI0
aI1
aI2
aI2
aI2
aI1
aI0
aI2
aI2
aI2
aI2
aI0
aI0
aI2
aI2
aI2
aI1
aI2
aI1
aI2
aI2
aI0
aI2
aa(lp311
I2
aI1
aI0
aI2
aI2
aI2
aI0
aI2
aI1
aI0
aI2
aI2
aI1
aI2
aI1
aI2
aI2
aI1
aI2
aI1
aI1
aI2
aI1
aI2
aI1
aI2
aI2
aI2
aI0
aI0
aI2
aI2
aI2
aa(lp312
I0
aI0
aI0
aI0
aI0
aI1
aI2
aI2
aI1
aI1
aI0
aI0
aI0
aI1
aI1
aI0
aI0
aI1
aI2
aI1
aI0
aI0
aI0
aI2
aI0
aI0
aI0
aI1
aI1
aI0
aI1
aI1
aI1
aa(lp313
I2
aI2
aI1
aI1
aI1
aI2
aI2
aI2
aI2
aI2
aI1
aI2
aI0
aI2
aI1
aI2
aI2
aI2
aI2
aI1
aI0
aI2
aI0
aI1
aI0
aI1
aI0
aI1
aI2
aI2
aI2
aI2
aI2
aa(lp314
I2
aI2
aI1
aI1
aI2
aI1
aI2
aI2
aI2
aI0
aI2
aI1
aI0
aI2
aI2
aI0
aI2
aI0
aI2
aI2
aI2
aI2
aI2
aI2
aI2
aI2
aI1
aI1
aI1
aI2
aI2
aI1
aI0
aa(lp315
I1
aI2
aI1
aI2
aI2
aI2
aI2
aI0
aI1
aI1
aI0
aI2
aI1
aI0
aI2
aI1
aI2
aI2
aI2
aI2
aI2
aI2
aI1
aI1
aI1
aI1
aI1
aI2
aI2
aI2
aI0
aI2
aI1
aa(lp316
I1
aI2
aI1
aI1
aI0
aI2
aI2
aI2
aI0
aI2
aI2
aI2
aI2
aI1
aI2
aI2
aI0
aI2
aI1
aI2
aI1
aI2
aI0
aI2
aI1
aI2
aI2
aI2
aI2
aI0
aI2
aI1
aI2
aa(lp317
I1
aI1
aI0
aI1
aI2
aI2
aI1
aI1
aI2
aI2
aI2
aI2
aI2
aI1
aI1
aI1
aI1
aI2
aI2
aI2
aI2
aI1
aI1
aI2
aI0
aI1
aI2
aI2
aI1
aI1
aI1
aI1
aI2
aa(lp318
I1
aI1
aI1
aI1
aI2
aI1
aI0
aI0
aI1
aI0
aI1
aI0
aI0
aI0
aI0
aI0
aI1
aI0
aI1
aI0
aI1
aI2
aI0
aI1
aI0
aI0
aI0
aI2
aI1
aI0
aI0
aI1
aI1
aa(lp319
I0
aI0
aI1
aI2
aI0
aI0
aI0
aI0
aI1
aI0
aI0
aI0
aI0
aI2
aI0
aI2
aI1
aI1
aI0
aI2
aI0
aI0
aI1
aI0
aI1
aI0
aI2
aI1
aI1
aI1
aI0
aI1
aI0
aa(lp320
I2
aI2
aI2
aI1
aI1
aI2
aI2
aI2
aI2
aI0
aI2
aI2
aI1
aI1
aI2
aI1
aI2
aI1
aI1
aI0
aI1
aI2
aI2
aI0
aI1
aI1
aI1
aI2
aI2
aI1
aI2
aI2
aI1
aa(lp321
I1
aI2
aI0
aI1
aI2
aI0
aI2
aI1
aI1
aI0
aI2
aI2
aI1
aI2
aI2
aI2
aI1
aI2
aI1
aI2
aI1
aI0
aI2
aI2
aI2
aI2
aI0
aI2
aI2
aI2
aI1
aI2
aI1
aa(lp322
I0
aI2
aI0
aI2
aI2
aI1
aI2
aI2
aI1
aI2
aI2
aI2
aI2
aI2
aI0
aI2
aI0
aI2
aI1
aI2
aI1
aI1
aI2
aI0
aI2
aI0
aI2
aI2
aI0
aI2
aI2
aI2
aI2
aa(lp323
I1
aI0
aI2
aI0
aI0
aI1
aI2
aI1
aI1
aI0
aI0
aI0
aI1
aI1
aI1
aI0
aI0
aI0
aI0
aI1
aI1
aI2
aI1
aI0
aI0
aI0
aI0
aI0
aI0
aI2
aI1
aI1
aI0
aa(lp324
I0
aI1
aI2
aI2
aI2
aI2
aI0
aI2
aI2
aI2
aI1
aI2
aI0
aI1
aI1
aI1
aI1
aI2
aI1
aI0
aI2
aI0
aI1
aI2
aI1
aI2
aI2
aI2
aI2
aI1
aI2
aI2
aI2
aa(lp325
I1
aI1
aI1
aI2
aI0
aI0
aI1
aI0
aI1
aI0
aI1
aI0
aI1
aI0
aI1
aI0
aI0
aI0
aI2
aI0
aI0
aI0
aI0
aI2
aI1
aI0
aI0
aI0
aI2
aI1
aI0
aI0
aI1
aa(lp326
I0
aI0
aI0
aI0
aI0
aI1
aI0
aI0
aI1
aI0
aI0
aI0
aI0
aI0
aI1
aI0
aI1
aI1
aI2
aI2
aI1
aI1
aI0
aI0
aI1
aI0
aI2
aI1
aI0
aI0
aI0
aI1
aI2
aa(lp327
I1
aI2
aI2
aI0
aI2
aI1
aI2
aI2
aI2
aI2
aI2
aI2
aI2
aI0
aI2
aI1
aI2
aI2
aI2
aI2
aI2
aI1
aI1
aI0
aI0
aI1
aI1
aI1
aI2
aI0
aI2
aI2
aI1
aa(lp328
I1
aI0
aI0
aI0
aI0
aI1
aI0
aI1
aI0
aI0
aI1
aI0
aI2
aI0
aI1
aI1
aI2
aI0
aI1
aI0
aI0
aI1
aI1
aI0
aI0
aI2
aI0
aI1
aI0
aI0
aI1
aI1
aI2
aa(lp329
I1
aI2
aI2
aI2
aI1
aI2
aI2
aI2
aI2
aI1
aI1
aI2
aI2
aI2
aI0
aI2
aI2
aI1
aI1
aI2
aI0
aI2
aI0
aI0
aI2
aI2
aI2
aI1
aI2
aI1
aI1
aI1
aI1
aa(lp330
I2
aI2
aI0
aI1
aI1
aI1
aI0
aI2
aI1
aI2
aI1
aI2
aI2
aI2
aI2
aI2
aI2
aI2
aI2
aI2
aI1
aI1
aI1
aI2
aI2
aI1
aI1
aI0
aI0
aI2
aI1
aI2
aI2
aa(lp331
I2
aI0
aI0
aI0
aI0
aI0
aI2
aI0
aI0
aI1
aI0
aI0
aI0
aI2
aI0
aI1
aI1
aI0
aI0
aI0
aI0
aI0
aI2
aI0
aI2
aI2
aI0
aI0
aI1
aI1
aI1
aI1
aI1
aa(lp332
I0
aI1
aI1
aI0
aI0
aI0
aI0
aI0
aI0
aI2
aI2
aI0
aI0
aI2
aI0
aI0
aI2
aI0
aI2
aI1
aI1
aI0
aI0
aI0
aI0
aI1
aI0
aI0
aI0
aI0
aI1
aI0
aI2
aa(lp333
I2
aI0
aI0
aI0
aI0
aI0
aI2
aI1
aI2
aI1
aI0
aI0
aI0
aI1
aI0
aI0
aI0
aI0
aI0
aI1
aI0
aI1
aI1
aI2
aI0
aI0
aI0
aI0
aI1
aI0
aI1
aI1
aI2
aa(lp334
I2
aI2
aI2
aI2
aI0
aI2
aI1
aI2
aI0
aI1
aI2
aI1
aI2
aI2
aI2
aI1
aI2
aI2
aI0
aI1
aI2
aI2
aI1
aI2
aI2
aI2
aI2
aI0
aI1
aI1
aI2
aI2
aI2
aa(lp335
I0
aI0
aI0
aI0
aI0
aI1
aI0
aI0
aI0
aI2
aI1
aI1
aI1
aI0
aI0
aI1
aI0
aI1
aI0
aI0
aI0
aI0
aI0
aI1
aI0
aI1
aI1
aI0
aI2
aI1
aI0
aI2
aI2
aa(lp336
I2
aI1
aI1
aI0
aI2
aI0
aI2
aI1
aI0
aI2
aI2
aI2
aI2
aI2
aI2
aI1
aI2
aI2
aI2
aI2
aI1
aI2
aI1
aI0
aI0
aI2
aI0
aI2
aI2
aI2
aI1
aI2
aI2
aa(lp337
I2
aI2
aI2
aI2
aI2
aI1
aI2
aI2
aI2
aI2
aI1
aI1
aI1
aI2
aI2
aI0
aI1
aI2
aI0
aI2
aI1
aI2
aI1
aI2
aI1
aI2
aI1
aI2
aI1
aI1
aI0
aI1
aI2
aa(lp338
I1
aI2
aI2
aI2
aI1
aI2
aI2
aI2
aI1
aI0
aI2
aI2
aI2
aI0
aI1
aI2
aI2
aI2
aI2
aI2
aI2
aI1
aI1
aI2
aI2
aI2
aI1
aI1
aI0
aI1
aI1
aI1
aI2
aa(lp339
I2
aI1
aI0
aI1
aI2
aI1
aI2
aI0
aI2
aI2
aI2
aI2
aI1
aI2
aI2
aI2
aI0
aI1
aI1
aI1
aI2
aI0
aI2
aI2
aI1
aI1
aI2
aI2
aI2
aI2
aI2
aI1
aI2
aa(lp340
I0
aI2
aI2
aI1
aI1
aI1
aI1
aI2
aI2
aI2
aI2
aI2
aI2
aI2
aI0
aI2
aI1
aI2
aI1
aI1
aI1
aI1
aI1
aI1
aI2
aI2
aI1
aI2
aI2
aI2
aI1
aI2
aI2
aa(lp341
I0
aI2
aI0
aI0
aI1
aI1
aI1
aI0
aI1
aI0
aI1
aI0
aI1
aI1
aI0
aI0
aI0
aI0
aI1
aI0
aI0
aI0
aI1
aI1
aI0
aI1
aI0
aI0
aI0
aI2
aI0
aI2
aI2
aa(lp342
I2
aI0
aI2
aI1
aI0
aI1
aI2
aI2
aI2
aI1
aI2
aI0
aI2
aI2
aI2
aI1
aI2
aI0
aI2
aI1
aI2
aI2
aI2
aI1
aI2
aI2
aI1
aI2
aI2
aI2
aI2
aI1
aI0
aa(lp343
I1
aI2
aI1
aI2
aI2
aI2
aI2
aI2
aI0
aI2
aI1
aI1
aI1
aI1
aI2
aI2
aI1
aI1
aI1
aI1
aI2
aI2
aI2
aI2
aI1
aI2
aI1
aI2
aI0
aI1
aI2
aI1
aI2
aa(lp344
I0
aI1
aI2
aI0
aI1
aI1
aI1
aI2
aI0
aI0
aI0
aI1
aI0
aI0
aI1
aI0
aI0
aI0
aI0
aI0
aI2
aI0
aI0
aI0
aI0
aI0
aI1
aI1
aI2
aI1
aI0
aI0
aI1
aa(lp345
I0
aI0
aI0
aI0
aI1
aI1
aI0
aI2
aI0
aI1
aI0
aI0
aI0
aI2
aI2
aI0
aI1
aI1
aI0
aI0
aI0
aI1
aI0
aI0
aI0
aI1
aI2
aI2
aI1
aI0
aI0
aI0
aI1
aa(lp346
I1
aI1
aI2
aI2
aI2
aI2
aI1
aI2
aI2
aI2
aI2
aI2
aI1
aI2
aI0
aI1
aI2
aI1
aI2
aI2
aI1
aI2
aI2
aI1
aI2
aI2
aI1
aI1
aI1
aI0
aI2
aI1
aI2
aa(lp347
I0
aI0
aI2
aI0
aI0
aI0
aI0
aI2
aI0
aI2
aI1
aI1
aI2
aI0
aI1
aI0
aI0
aI0
aI0
aI0
aI1
aI1
aI0
aI1
aI1
aI0
aI0
aI1
aI0
aI0
aI1
aI1
aI0
aa(lp348
I1
aI1
aI1
aI2
aI1
aI2
aI0
aI2
aI2
aI1
aI2
aI2
aI1
aI2
aI2
aI2
aI2
aI2
aI2
aI1
aI2
aI2
aI2
aI2
aI2
aI1
aI2
aI1
aI1
aI2
aI0
aI1
aI1
aa(lp349
I2
aI1
aI0
aI0
aI0
aI0
aI1
aI0
aI0
aI2
aI0
aI1
aI0
aI0
aI0
aI1
aI1
aI0
aI0
aI1
aI0
aI0
aI1
aI0
aI0
aI0
aI1
aI0
aI0
aI0
aI0
aI1
aI1
aa(lp350
I0
aI1
aI0
aI0
aI1
aI0
aI0
aI0
aI0
aI0
aI0
aI0
aI0
aI2
aI0
aI1
aI0
aI0
aI0
aI1
aI0
aI2
aI2
aI1
aI0
aI1
aI1
aI0
aI2
aI0
aI0
aI0
aI1
aa(lp351
I1
aI1
aI0
aI0
aI1
aI0
aI1
aI2
aI0
aI1
aI1
aI0
aI2
aI0
aI1
aI0
aI0
aI1
aI0
aI0
aI1
aI2
aI1
aI2
aI0
aI0
aI0
aI0
aI0
aI0
aI0
aI0
aI0
aa(lp352
I2
aI0
aI0
aI0
aI1
aI0
aI0
aI0
aI0
aI1
aI2
aI0
aI1
aI0
aI0
aI1
aI0
aI1
aI2
aI0
aI0
aI0
aI0
aI2
aI0
aI0
aI0
aI1
aI1
aI2
aI0
aI0
aI2
aa(lp353
I1
aI0
aI0
aI0
aI2
aI0
aI0
aI0
aI1
aI0
aI2
aI0
aI0
aI0
aI0
aI0
aI2
aI2
aI1
aI2
aI1
aI1
aI0
aI0
aI0
aI1
aI0
aI0
aI0
aI0
aI0
aI1
aI1
aa(lp354
I1
aI0
aI2
aI0
aI0
aI0
aI1
aI2
aI0
aI0
aI0
aI1
aI0
aI0
aI1
aI0
aI0
aI1
aI1
aI0
aI0
aI0
aI1
aI1
aI0
aI0
aI0
aI2
aI0
aI2
aI1
aI1
aI1
aa(lp355
I2
aI2
aI1
aI0
aI0
aI1
aI1
aI1
aI2
aI1
aI1
aI1
aI1
aI2
aI2
aI1
aI2
aI2
aI1
aI2
aI2
aI2
aI2
aI2
aI2
aI2
aI1
aI2
aI2
aI2
aI2
aI0
aI2
aa(lp356
I2
aI0
aI0
aI0
aI0
aI1
aI1
aI0
aI0
aI1
aI0
aI1
aI2
aI0
aI1
aI0
aI0
aI0
aI0
aI2
aI0
aI0
aI0
aI2
aI0
aI1
aI0
aI0
aI1
aI1
aI1
aI1
aI0
aa(lp357
I1
aI1
aI0
aI0
aI1
aI0
aI0
aI1
aI0
aI0
aI0
aI0
aI0
aI2
aI0
aI0
aI1
aI1
aI2
aI0
aI0
aI1
aI1
aI1
aI0
aI0
aI1
aI1
aI1
aI2
aI0
aI0
aI1
aa(lp358
I1
aI2
aI1
aI1
aI2
aI2
aI2
aI1
aI2
aI0
aI2
aI1
aI2
aI1
aI2
aI1
aI1
aI1
aI2
aI2
aI0
aI1
aI1
aI2
aI2
aI2
aI1
aI2
aI2
aI2
aI2
aI2
aI1
aa(lp359
I0
aI0
aI0
aI0
aI0
aI1
aI0
aI2
aI1
aI1
aI1
aI0
aI0
aI1
aI0
aI0
aI0
aI0
aI0
aI0
aI1
aI1
aI0
aI0
aI1
aI0
aI0
aI2
aI0
aI0
aI1
aI0
aI2
aa(lp360
I0
aI0
aI0
aI0
aI1
aI0
aI0
aI0
aI1
aI1
aI1
aI0
aI0
aI1
aI2
aI1
aI1
aI0
aI0
aI1
aI2
aI2
aI0
aI2
aI0
aI1
aI0
aI0
aI0
aI0
aI0
aI0
aI1
aa(lp361
I0
aI0
aI2
aI0
aI0
aI0
aI1
aI1
aI0
aI0
aI0
aI0
aI0
aI0
aI2
aI2
aI0
aI0
aI1
aI0
aI0
aI0
aI0
aI0
aI1
aI0
aI1
aI0
aI0
aI1
aI1
aI2
aI1
aa(lp362
I0
aI1
aI1
aI0
aI0
aI0
aI0
aI0
aI0
aI0
aI0
aI1
aI0
aI0
aI0
aI0
aI0
aI0
aI1
aI1
aI0
aI1
aI2
aI0
aI1
aI2
aI0
aI0
aI2
aI0
aI2
aI1
aI1
aa(lp363
I0
aI0
aI2
aI0
aI0
aI0
aI0
aI0
aI1
aI1
aI0
aI0
aI0
aI1
aI1
aI0
aI0
aI0
aI0
aI0
aI0
aI0
aI1
aI1
aI0
aI1
aI0
aI2
aI1
aI1
aI0
aI2
aI0
aa(lp364
I0
aI1
aI1
aI0
aI0
aI0
aI1
aI1
aI0
aI0
aI1
aI1
aI0
aI2
aI1
aI1
aI0
aI0
aI0
aI0
aI0
aI1
aI0
aI1
aI1
aI0
aI1
aI0
aI0
aI1
aI0
aI2
aI0
aa(lp365
I0
aI1
aI1
aI2
aI1
aI2
aI2
aI2
aI2
aI1
aI2
aI2
aI1
aI2
aI2
aI2
aI2
aI2
aI1
aI1
aI2
aI1
aI1
aI1
aI1
aI1
aI2
aI2
aI1
aI2
aI2
aI2
aI2
aa(lp366
I2
aI0
aI1
aI2
aI2
aI1
aI2
aI2
aI2
aI1
aI2
aI1
aI1
aI2
aI0
aI2
aI1
aI1
aI1
aI1
aI2
aI2
aI1
aI2
aI2
aI2
aI2
aI2
aI2
aI2
aI1
aI1
aI2
aa(lp367
I1
aI2
aI2
aI2
aI0
aI2
aI1
aI1
aI0
aI2
aI2
aI2
aI2
aI2
aI2
aI2
aI0
aI2
aI1
aI2
aI2
aI1
aI2
aI2
aI1
aI2
aI0
aI2
aI2
aI2
aI0
aI2
aI1
aa(lp368
I0
aI0
aI1
aI0
aI1
aI1
aI2
aI0
aI1
aI0
aI1
aI0
aI1
aI0
aI2
aI2
aI0
aI0
aI0
aI0
aI1
aI0
aI0
aI0
aI2
aI0
aI1
aI0
aI1
aI0
aI0
aI0
aI0
aa(lp369
I0
aI2
aI2
aI2
aI1
aI0
aI1
aI0
aI2
aI2
aI2
aI0
aI2
aI0
aI1
aI1
aI2
aI2
aI2
aI1
aI2
aI2
aI2
aI2
aI2
aI2
aI2
aI2
aI1
aI2
aI1
aI2
aI2
aa(lp370
I0
aI0
aI0
aI0
aI0
aI0
aI0
aI0
aI0
aI1
aI1
aI1
aI1
aI0
aI0
aI0
aI0
aI0
aI0
aI1
aI1
aI0
aI2
aI1
aI1
aI0
aI0
aI1
aI0
aI0
aI0
aI2
aI2
aa(lp371
I0
aI2
aI1
aI0
aI2
aI0
aI0
aI0
aI0
aI0
aI2
aI0
aI2
aI1
aI0
aI1
aI2
aI0
aI0
aI0
aI0
aI0
aI0
aI1
aI0
aI1
aI0
aI1
aI0
aI0
aI0
aI0
aI0
aa(lp372
I2
aI2
aI1
aI2
aI2
aI2
aI0
aI1
aI2
aI2
aI0
aI2
aI2
aI2
aI2
aI0
aI2
aI1
aI2
aI1
aI1
aI1
aI2
aI2
aI2
aI0
aI1
aI2
aI1
aI2
aI1
aI2
aI2
aa(lp373
I2
aI2
aI0
aI2
aI2
aI1
aI2
aI0
aI1
aI2
aI2
aI2
aI1
aI2
aI2
aI2
aI1
aI2
aI1
aI2
aI0
aI1
aI1
aI2
aI1
aI2
aI1
aI2
aI2
aI2
aI2
aI0
aI2
aa(lp374
I0
aI0
aI0
aI0
aI0
aI1
aI0
aI0
aI2
aI0
aI0
aI1
aI0
aI1
aI1
aI1
aI0
aI1
aI2
aI1
aI1
aI1
aI0
aI1
aI2
aI1
aI0
aI0
aI0
aI0
aI0
aI0
aI0
aa(lp375
I0
aI0
aI2
aI1
aI0
aI0
aI0
aI0
aI2
aI0
aI0
aI0
aI1
aI0
aI1
aI1
aI0
aI0
aI2
aI2
aI2
aI0
aI0
aI0
aI2
aI1
aI0
aI0
aI0
aI0
aI0
aI0
aI0
aa(lp376
I2
aI0
aI0
aI2
aI1
aI1
aI2
aI2
aI2
aI2
aI2
aI0
aI2
aI2
aI1
aI1
aI2
aI2
aI2
aI2
aI0
aI2
aI2
aI1
aI2
aI2
aI2
aI1
aI2
aI0
aI2
aI2
aI2
aa(lp377
I0
aI1
aI0
aI1
aI0
aI0
aI0
aI1
aI0
aI0
aI0
aI1
aI1
aI1
aI1
aI2
aI0
aI0
aI0
aI2
aI1
aI1
aI0
aI1
aI0
aI0
aI0
aI1
aI0
aI1
aI0
aI0
aI0
aa(lp378
I2
aI1
aI2
aI2
aI2
aI0
aI2
aI2
aI0
aI2
aI2
aI2
aI2
aI1
aI2
aI1
aI1
aI1
aI1
aI1
aI2
aI2
aI2
aI2
aI1
aI2
aI2
aI2
aI2
aI1
aI0
aI2
aI2
aa(lp379
I0
aI2
aI2
aI2
aI2
aI1
aI1
aI2
aI0
aI1
aI2
aI2
aI2
aI2
aI2
aI1
aI0
aI2
aI1
aI2
aI2
aI2
aI2
aI2
aI2
aI2
aI1
aI2
aI1
aI2
aI2
aI0
aI0
aa(lp380
I0
aI0
aI0
aI0
aI0
aI0
aI2
aI1
aI0
aI0
aI0
aI1
aI0
aI0
aI0
aI1
aI0
aI0
aI0
aI2
aI0
aI0
aI2
aI0
aI2
aI0
aI1
aI0
aI2
aI0
aI0
aI1
aI2
aa(lp381
I0
aI2
aI1
aI1
aI0
aI0
aI0
aI2
aI0
aI1
aI0
aI0
aI1
aI0
aI1
aI0
aI2
aI1
aI1
aI0
aI0
aI1
aI0
aI1
aI0
aI0
aI0
aI0
aI0
aI0
aI0
aI0
aI2
aa(lp382
I1
aI0
aI1
aI1
aI1
aI1
aI0
aI2
aI1
aI0
aI0
aI2
aI0
aI0
aI0
aI2
aI0
aI0
aI0
aI2
aI0
aI0
aI0
aI0
aI0
aI0
aI1
aI0
aI0
aI0
aI0
aI2
aI0
aa(lp383
I2
aI0
aI1
aI1
aI0
aI0
aI0
aI1
aI1
aI0
aI0
aI1
aI2
aI0
aI1
aI1
aI0
aI0
aI0
aI0
aI1
aI1
aI1
aI0
aI0
aI1
aI0
aI0
aI0
aI0
aI0
aI0
aI2
aa(lp384
I0
aI0
aI1
aI0
aI0
aI1
aI1
aI0
aI0
aI0
aI1
aI0
aI0
aI1
aI0
aI1
aI2
aI1
aI0
aI2
aI0
aI0
aI1
aI1
aI0
aI1
aI0
aI0
aI0
aI0
aI1
aI1
aI0
aa(lp385
I0
aI0
aI0
aI1
aI0
aI0
aI0
aI0
aI1
aI1
aI1
aI0
aI0
aI0
aI0
aI0
aI0
aI0
aI1
aI0
aI0
aI2
aI0
aI2
aI1
aI0
aI0
aI2
aI0
aI2
aI1
aI0
aI1
aa(lp386
I2
aI1
aI2
aI0
aI2
aI1
aI1
aI0
aI2
aI2
aI1
aI2
aI2
aI2
aI1
aI2
aI2
aI1
aI1
aI2
aI1
aI2
aI2
aI2
aI2
aI1
aI2
aI2
aI1
aI1
aI2
aI2
aI2
aa(lp387
I0
aI0
aI2
aI1
aI0
aI0
aI0
aI1
aI0
aI1
aI0
aI1
aI0
aI0
aI2
aI0
aI0
aI2
aI1
aI0
aI2
aI0
aI0
aI0
aI0
aI1
aI0
aI0
aI0
aI2
aI0
aI0
aI0
aa(lp388
I1
aI2
aI2
aI2
aI2
aI2
aI1
aI2
aI2
aI2
aI1
aI1
aI2
aI2
aI1
aI0
aI2
aI1
aI2
aI2
aI2
aI1
aI1
aI2
aI1
aI2
aI1
aI2
aI1
aI2
aI0
aI2
aI1
aa(lp389
I2
aI2
aI2
aI2
aI2
aI0
aI2
aI2
aI1
aI2
aI2
aI1
aI2
aI1
aI0
aI2
aI1
aI2
aI2
aI2
aI2
aI2
aI1
aI2
aI2
aI2
aI0
aI2
aI1
aI1
aI1
aI1
aI2
aa(lp390
I0
aI1
aI0
aI0
aI1
aI0
aI1
aI0
aI0
aI0
aI0
aI0
aI1
aI0
aI2
aI0
aI1
aI0
aI1
aI0
aI0
aI2
aI0
aI0
aI1
aI0
aI0
aI0
aI0
aI0
aI2
aI1
aI2
aa(lp391
I2
aI2
aI1
aI2
aI2
aI2
aI2
aI0
aI2
aI1
aI2
aI2
aI2
aI1
aI2
aI2
aI1
aI2
aI2
aI0
aI2
aI1
aI1
aI2
aI2
aI2
aI1
aI2
aI0
aI1
aI2
aI2
aI0
aa(lp392
I0
aI1
aI0
aI1
aI2
aI0
aI1
aI1
aI1
aI0
aI0
aI0
aI0
aI1
aI1
aI0
aI0
aI1
aI0
aI0
aI0
aI0
aI0
aI2
aI1
aI0
aI1
aI0
aI0
aI0
aI1
aI1
aI0
aa(lp393
I0
aI0
aI0
aI1
aI0
aI0
aI1
aI0
aI0
aI2
aI1
aI1
aI0
aI0
aI0
aI0
aI0
aI0
aI1
aI0
aI2
aI0
aI0
aI0
aI1
aI1
aI1
aI0
aI1
aI2
aI0
aI0
aI1
aa(lp394
I0
aI0
aI0
aI1
aI2
aI0
aI0
aI0
aI2
aI1
aI0
aI0
aI0
aI2
aI2
aI0
aI0
aI0
aI2
aI0
aI0
aI1
aI0
aI0
aI0
aI2
aI0
aI0
aI0
aI0
aI0
aI0
aI0
aa(lp395
I0
aI1
aI1
aI0
aI0
aI0
aI1
aI2
aI0
aI0
aI0
aI0
aI1
aI0
aI0
aI0
aI2
aI1
aI0
aI0
aI0
aI2
aI1
aI0
aI0
aI0
aI2
aI0
aI0
aI2
aI0
aI0
aI0
aa(lp396
I2
aI1
aI1
aI2
aI2
aI1
aI2
aI2
aI2
aI2
aI2
aI1
aI1
aI0
aI2
aI1
aI1
aI2
aI2
aI0
aI2
aI2
aI2
aI2
aI2
aI2
aI1
aI2
aI2
aI2
aI1
aI1
aI1
aa(lp397
I2
aI2
aI2
aI2
aI1
aI2
aI1
aI1
aI0
aI2
aI2
aI0
aI2
aI0
aI2
aI2
aI1
aI2
aI2
aI2
aI2
aI2
aI2
aI2
aI1
aI2
aI2
aI1
aI1
aI2
aI1
aI1
aI2
aa(lp398
I2
aI2
aI2
aI1
aI2
aI2
aI2
aI1
aI2
aI1
aI2
aI2
aI2
aI2
aI2
aI1
aI1
aI2
aI1
aI0
aI2
aI1
aI2
aI1
aI1
aI1
aI2
aI2
aI2
aI2
aI1
aI2
aI0
aa(lp399
I2
aI2
aI2
aI1
aI2
aI2
aI0
aI0
aI2
aI0
aI2
aI2
aI2
aI2
aI0
aI1
aI2
aI0
aI2
aI2
aI2
aI2
aI2
aI2
aI2
aI1
aI2
aI2
aI1
aI1
aI2
aI2
aI1
aa(lp400
I0
aI1
aI0
aI0
aI0
aI2
aI0
aI0
aI0
aI1
aI0
aI1
aI0
aI0
aI1
aI1
aI0
aI1
aI0
aI1
aI0
aI0
aI2
aI1
aI0
aI0
aI1
aI0
aI0
aI1
aI0
aI1
aI0
aa(lp401
I1
aI2
aI2
aI2
aI2
aI0
aI2
aI2
aI1
aI2
aI2
aI2
aI2
aI2
aI1
aI2
aI2
aI2
aI1
aI2
aI2
aI1
aI0
aI0
aI2
aI2
aI2
aI1
aI2
aI2
aI1
aI2
aI2
aa(lp402
I0
aI0
aI1
aI1
aI2
aI1
aI1
aI0
aI1
aI0
aI1
aI0
aI0
aI0
aI1
aI1
aI0
aI0
aI0
aI0
aI0
aI2
aI0
aI1
aI2
aI0
aI0
aI0
aI0
aI0
aI0
aI0
aI0
aa(lp403
I0
aI0
aI0
aI2
aI1
aI0
aI0
aI0
aI0
aI2
aI0
aI0
aI0
aI1
aI0
aI0
aI0
aI0
aI0
aI0
aI2
aI0
aI0
aI0
aI2
aI1
aI0
aI0
aI1
aI0
aI2
aI0
aI0
aa(lp404
I2
aI2
aI1
aI1
aI2
aI2
aI0
aI2
aI1
aI2
aI2
aI2
aI2
aI1
aI1
aI2
aI2
aI0
aI2
aI2
aI2
aI1
aI2
aI2
aI2
aI2
aI1
aI2
aI1
aI2
aI1
aI1
aI1
aa(lp405
I2
aI1
aI1
aI1
aI2
aI2
aI2
aI0
aI1
aI0
aI2
aI2
aI0
aI2
aI1
aI1
aI2
aI2
aI2
aI2
aI2
aI1
aI2
aI2
aI2
aI0
aI2
aI1
aI2
aI2
aI2
aI2
aI2
aa(lp406
I1
aI0
aI1
aI2
aI2
aI2
aI2
aI1
aI2
aI1
aI2
aI2
aI2
aI2
aI2
aI2
aI2
aI2
aI2
aI2
aI2
aI2
aI0
aI2
aI0
aI1
aI0
aI2
aI2
aI2
aI1
aI1
aI2
aa(lp407
I2
aI1
aI2
aI2
aI2
aI2
aI2
aI1
aI1
aI2
aI0
aI2
aI0
aI2
aI2
aI1
aI2
aI2
aI2
aI2
aI2
aI0
aI2
aI1
aI0
aI1
aI1
aI2
aI2
aI2
aI1
aI2
aI2
aa(lp408
I2
aI2
aI1
aI2
aI0
aI2
aI2
aI1
aI2
aI2
aI2
aI2
aI1
aI0
aI2
aI2
aI2
aI2
aI0
aI1
aI2
aI2
aI2
aI1
aI2
aI2
aI2
aI2
aI0
aI2
aI2
aI1
aI2
aa(lp409
I0
aI1
aI1
aI2
aI2
aI0
aI2
aI2
aI2
aI2
aI2
aI2
aI2
aI2
aI2
aI2
aI2
aI1
aI0
aI2
aI2
aI1
aI2
aI2
aI2
aI1
aI2
aI1
aI2
aI2
aI2
aI0
aI2
aa(lp410
I0
aI2
aI2
aI2
aI1
aI2
aI2
aI1
aI2
aI1
aI2
aI1
aI2
aI1
aI2
aI2
aI2
aI2
aI1
aI2
aI2
aI2
aI0
aI0
aI2
aI2
aI2
aI2
aI1
aI1
aI2
aI1
aI1
aa(lp411
I0
aI0
aI1
aI0
aI0
aI2
aI0
aI0
aI1
aI0
aI0
aI0
aI0
aI0
aI0
aI0
aI1
aI0
aI0
aI0
aI2
aI0
aI0
aI0
aI0
aI2
aI1
aI0
aI0
aI2
aI1
aI0
aI2
aa(lp412
I0
aI1
aI0
aI0
aI0
aI0
aI1
aI0
aI0
aI0
aI1
aI0
aI0
aI2
aI1
aI0
aI1
aI0
aI0
aI1
aI0
aI1
aI0
aI0
aI0
aI2
aI0
aI0
aI0
aI0
aI1
aI0
aI1
aa(lp413
I2
aI1
aI0
aI2
aI1
aI0
aI1
aI0
aI0
aI0
aI0
aI0
aI2
aI0
aI1
aI0
aI1
aI0
aI1
aI0
aI2
aI0
aI0
aI0
aI0
aI0
aI0
aI0
aI0
aI0
aI1
aI0
aI0
aa(lp414
I2
aI1
aI1
aI2
aI2
aI2
aI2
aI2
aI1
aI2
aI2
aI2
aI1
aI2
aI1
aI2
aI2
aI1
aI0
aI2
aI2
aI1
aI2
aI2
aI1
aI1
aI2
aI2
aI1
aI0
aI2
aI2
aI2
aa(lp415
I0
aI0
aI0
aI0
aI2
aI0
aI0
aI0
aI1
aI2
aI0
aI0
aI0
aI1
aI0
aI0
aI0
aI2
aI0
aI0
aI0
aI0
aI0
aI1
aI0
aI2
aI1
aI0
aI1
aI0
aI1
aI1
aI0
aa(lp416
I0
aI0
aI0
aI0
aI1
aI0
aI0
aI0
aI0
aI0
aI0
aI0
aI0
aI2
aI1
aI0
aI0
aI1
aI2
aI0
aI0
aI1
aI1
aI2
aI1
aI0
aI0
aI1
aI0
aI0
aI0
aI0
aI0
aa(lp417
I1
aI0
aI0
aI0
aI1
aI2
aI0
aI0
aI0
aI0
aI0
aI0
aI2
aI0
aI0
aI0
aI0
aI1
aI1
aI0
aI0
aI1
aI0
aI0
aI0
aI0
aI2
aI0
aI1
aI0
aI0
aI2
aI1
aa(lp418
I1
aI0
aI0
aI0
aI1
aI0
aI0
aI0
aI0
aI0
aI0
aI1
aI0
aI1
aI0
aI1
aI0
aI0
aI0
aI1
aI1
aI0
aI0
aI1
aI1
aI0
aI0
aI0
aI2
aI2
aI0
aI2
aI0
aa(lp419
I2
aI0
aI2
aI0
aI0
aI0
aI1
aI1
aI1
aI0
aI0
aI1
aI0
aI0
aI1
aI0
aI0
aI0
aI0
aI0
aI0
aI0
aI0
aI1
aI0
aI0
aI0
aI1
aI0
aI0
aI0
aI2
aI1
aa(lp420
I1
aI1
aI2
aI2
aI1
aI2
aI1
aI2
aI2
aI0
aI2
aI2
aI2
aI2
aI2
aI2
aI1
aI2
aI1
aI2
aI2
aI1
aI2
aI2
aI1
aI2
aI2
aI2
aI2
aI0
aI2
aI1
aI1
aa(lp421
I0
aI0
aI0
aI1
aI0
aI1
aI1
aI0
aI2
aI0
aI1
aI1
aI0
aI0
aI0
aI2
aI0
aI1
aI0
aI0
aI0
aI0
aI0
aI0
aI0
aI0
aI1
aI0
aI1
aI0
aI2
aI0
aI0
aa(lp422
I0
aI2
aI0
aI0
aI1
aI0
aI0
aI0
aI0
aI0
aI2
aI0
aI0
aI0
aI0
aI0
aI0
aI1
aI0
aI2
aI0
aI1
aI1
aI0
aI0
aI0
aI0
aI0
aI0
aI0
aI0
aI1
aI1
aa(lp423
I0
aI0
aI0
aI1
aI0
aI1
aI1
aI0
aI0
aI0
aI0
aI2
aI0
aI0
aI0
aI1
aI0
aI0
aI1
aI1
aI0
aI1
aI0
aI1
aI1
aI0
aI1
aI0
aI0
aI1
aI0
aI0
aI1
aa(lp424
I2
aI2
aI2
aI2
aI1
aI1
aI0
aI2
aI2
aI1
aI2
aI2
aI2
aI1
aI1
aI1
aI2
aI2
aI2
aI2
aI2
aI2
aI2
aI1
aI1
aI2
aI2
aI0
aI2
aI0
aI2
aI2
aI2
aa(lp425
I2
aI2
aI2
aI1
aI1
aI1
aI1
aI1
aI2
aI2
aI2
aI2
aI2
aI1
aI2
aI2
aI0
aI2
aI2
aI1
aI2
aI2
aI1
aI2
aI2
aI1
aI2
aI2
aI2
aI2
aI0
aI2
aI1
aa(lp426
I1
aI2
aI2
aI2
aI2
aI2
aI1
aI1
aI2
aI0
aI2
aI2
aI2
aI2
aI2
aI2
aI2
aI1
aI2
aI1
aI0
aI2
aI2
aI2
aI0
aI1
aI2
aI2
aI1
aI2
aI2
aI2
aI1
aa(lp427
I2
aI2
aI2
aI2
aI2
aI2
aI0
aI1
aI2
aI1
aI2
aI1
aI2
aI1
aI2
aI2
aI2
aI2
aI1
aI2
aI1
aI1
aI2
aI0
aI2
aI1
aI2
aI2
aI2
aI1
aI1
aI2
aI2
aa(lp428
I0
aI0
aI1
aI0
aI0
aI2
aI0
aI0
aI0
aI1
aI0
aI1
aI0
aI0
aI0
aI0
aI0
aI1
aI2
aI0
aI1
aI0
aI0
aI0
aI0
aI0
aI0
aI1
aI1
aI2
aI0
aI0
aI1
aa(lp429
I2
aI1
aI1
aI0
aI0
aI1
aI0
aI1
aI0
aI0
aI0
aI0
aI0
aI0
aI0
aI2
aI0
aI0
aI0
aI0
aI0
aI1
aI0
aI1
aI0
aI0
aI0
aI0
aI0
aI2
aI0
aI0
aI1
aa(lp430
I2
aI2
aI1
aI2
aI2
aI2
aI2
aI2
aI2
aI2
aI1
aI1
aI0
aI1
aI2
aI2
aI2
aI2
aI2
aI2
aI2
aI0
aI2
aI0
aI1
aI2
aI2
aI1
aI0
aI2
aI2
aI2
aI2
aa(lp431
I1
aI2
aI0
aI0
aI0
aI2
aI0
aI0
aI0
aI0
aI1
aI0
aI0
aI0
aI0
aI1
aI0
aI0
aI1
aI0
aI0
aI0
aI0
aI0
aI0
aI0
aI2
aI1
aI0
aI2
aI1
aI0
aI0
aa(lp432
I2
aI1
aI2
aI2
aI2
aI2
aI2
aI2
aI2
aI1
aI1
aI2
aI2
aI2
aI2
aI2
aI1
aI2
aI2
aI0
aI1
aI1
aI1
aI2
aI1
aI2
aI1
aI0
aI2
aI2
aI1
aI2
aI2
aa(lp433
I1
aI2
aI1
aI2
aI2
aI1
aI1
aI2
aI2
aI1
aI1
aI2
aI2
aI2
aI1
aI0
aI2
aI2
aI2
aI1
aI2
aI1
aI2
aI2
aI2
aI2
aI2
aI0
aI1
aI2
aI2
aI2
aI2
aa(lp434
I0
aI2
aI2
aI2
aI2
aI2
aI2
aI1
aI2
aI2
aI0
aI2
aI2
aI2
aI2
aI2
aI1
aI2
aI1
aI2
aI1
aI1
aI2
aI2
aI0
aI2
aI2
aI2
aI2
aI2
aI2
aI2
aI2
aa(lp435
I1
aI0
aI1
aI0
aI2
aI0
aI1
aI0
aI0
aI1
aI0
aI0
aI1
aI0
aI0
aI0
aI0
aI0
aI0
aI1
aI0
aI0
aI0
aI0
aI1
aI0
aI0
aI1
aI0
aI1
aI1
aI1
aI0
aa(lp436
I0
aI0
aI0
aI0
aI0
aI1
aI1
aI0
aI0
aI1
aI0
aI0
aI1
aI0
aI1
aI0
aI0
aI2
aI1
aI0
aI2
aI0
aI0
aI0
aI0
aI0
aI1
aI1
aI1
aI0
aI0
aI1
aI0
aa(lp437
I0
aI1
aI0
aI2
aI0
aI0
aI0
aI2
aI0
aI0
aI0
aI0
aI0
aI0
aI0
aI0
aI1
aI0
aI0
aI0
aI1
aI0
aI0
aI0
aI1
aI2
aI1
aI0
aI0
aI1
aI0
aI2
aI0
aa(lp438
I2
aI2
aI2
aI0
aI2
aI0
aI2
aI2
aI2
aI1
aI2
aI1
aI1
aI1
aI2
aI2
aI2
aI2
aI1
aI2
aI2
aI2
aI2
aI2
aI2
aI2
aI1
aI1
aI2
aI1
aI2
aI2
aI2
aa(lp439
I0
aI0
aI0
aI0
aI2
aI2
aI0
aI0
aI1
aI0
aI0
aI1
aI0
aI0
aI0
aI2
aI0
aI1
aI2
aI1
aI0
aI0
aI0
aI0
aI0
aI0
aI0
aI0
aI0
aI0
aI1
aI0
aI0
aa(lp440
I1
aI2
aI1
aI1
aI0
aI1
aI0
aI0
aI0
aI0
aI0
aI0
aI0
aI0
aI1
aI0
aI0
aI1
aI1
aI0
aI0
aI0
aI1
aI1
aI0
aI0
aI0
aI1
aI0
aI0
aI2
aI0
aI0
aa(lp441
I0
aI1
aI2
aI0
aI1
aI0
aI0
aI0
aI0
aI0
aI0
aI0
aI1
aI0
aI0
aI0
aI0
aI0
aI0
aI2
aI2
aI1
aI0
aI1
aI0
aI0
aI0
aI0
aI0
aI0
aI2
aI0
aI0
aa(lp442
I0
aI0
aI0
aI0
aI1
aI0
aI0
aI1
aI0
aI0
aI2
aI1
aI0
aI1
aI0
aI1
aI0
aI0
aI0
aI0
aI0
aI0
aI1
aI1
aI1
aI0
aI0
aI0
aI0
aI2
aI0
aI2
aI0
aa(lp443
I0
aI0
aI0
aI1
aI0
aI0
aI0
aI1
aI0
aI0
aI0
aI0
aI0
aI0
aI0
aI1
aI1
aI1
aI0
aI0
aI1
aI0
aI0
aI0
aI0
aI0
aI1
aI2
aI1
aI0
aI0
aI2
aI1
aa(lp444
I2
aI1
aI2
aI1
aI1
aI2
aI2
aI2
aI1
aI2
aI2
aI2
aI2
aI2
aI2
aI2
aI1
aI1
aI2
aI1
aI2
aI2
aI2
aI2
aI1
aI2
aI1
aI2
aI2
aI2
aI1
aI1
aI0
aa(lp445
I0
aI1
aI0
aI0
aI0
aI0
aI0
aI1
aI0
aI1
aI1
aI1
aI0
aI1
aI1
aI0
aI0
aI0
aI0
aI0
aI0
aI0
aI1
aI1
aI2
aI0
aI0
aI0
aI1
aI0
aI0
aI1
aI0
aa(lp446
I0
aI1
aI0
aI2
aI1
aI1
aI1
aI0
aI1
aI0
aI0
aI0
aI0
aI0
aI0
aI1
aI0
aI0
aI0
aI0
aI1
aI0
aI2
aI0
aI0
aI0
aI1
aI1
aI0
aI0
aI0
aI0
aI0
aa(lp447
I0
aI0
aI1
aI0
aI0
aI1
aI1
aI0
aI1
aI0
aI1
aI0
aI1
aI0
aI1
aI1
aI0
aI1
aI0
aI0
aI0
aI0
aI0
aI0
aI0
aI0
aI2
aI0
aI0
aI0
aI0
aI0
aI1
aa(lp448
I0
aI0
aI0
aI0
aI1
aI1
aI0
aI2
aI0
aI0
aI0
aI0
aI0
aI0
aI0
aI2
aI1
aI0
aI2
aI0
aI0
aI0
aI0
aI0
aI0
aI2
aI0
aI0
aI0
aI0
aI1
aI0
aI1
aa(lp449
I0
aI1
aI0
aI0
aI0
aI1
aI1
aI0
aI0
aI0
aI1
aI0
aI0
aI1
aI0
aI1
aI0
aI0
aI1
aI0
aI0
aI0
aI1
aI0
aI0
aI0
aI0
aI0
aI1
aI2
aI1
aI0
aI0
aa(lp450
I1
aI2
aI2
aI2
aI2
aI1
aI2
aI2
aI2
aI2
aI0
aI1
aI2
aI1
aI2
aI1
aI1
aI2
aI2
aI2
aI2
aI1
aI2
aI1
aI2
aI1
aI1
aI2
aI2
aI1
aI2
aI2
aI2
aa(lp451
I0
aI0
aI1
aI0
aI0
aI0
aI1
aI0
aI0
aI0
aI2
aI0
aI0
aI0
aI0
aI1
aI1
aI0
aI1
aI0
aI0
aI0
aI1
aI2
aI0
aI1
aI0
aI0
aI1
aI0
aI1
aI0
aI0
aa(lp452
I2
aI1
aI2
aI2
aI0
aI2
aI2
aI2
aI2
aI2
aI2
aI2
aI2
aI0
aI0
aI2
aI2
aI1
aI2
aI0
aI1
aI2
aI1
aI2
aI2
aI1
aI2
aI2
aI2
aI2
aI2
aI2
aI2
aa(lp453
I2
aI2
aI2
aI2
aI2
aI2
aI1
aI0
aI2
aI0
aI2
aI2
aI1
aI1
aI2
aI1
aI2
aI0
aI2
aI2
aI2
aI1
aI1
aI2
aI2
aI2
aI2
aI2
aI1
aI2
aI2
aI2
aI2
aa(lp454
I2
aI2
aI0
aI0
aI0
aI2
aI2
aI2
aI2
aI2
aI2
aI2
aI2
aI2
aI2
aI2
aI2
aI1
aI1
aI1
aI2
aI0
aI2
aI2
aI2
aI2
aI2
aI2
aI2
aI2
aI2
aI1
aI1
aa(lp455
I2
aI2
aI2
aI1
aI1
aI2
aI2
aI1
aI0
aI1
aI2
aI2
aI1
aI2
aI2
aI0
aI0
aI2
aI2
aI2
aI2
aI2
aI2
aI2
aI2
aI2
aI1
aI2
aI2
aI1
aI2
aI2
aI2
aa(lp456
I2
aI2
aI1
aI2
aI1
aI2
aI2
aI2
aI2
aI2
aI1
aI1
aI2
aI2
aI1
aI2
aI2
aI0
aI2
aI2
aI2
aI1
aI2
aI2
aI2
aI1
aI2
aI1
aI2
aI1
aI2
aI0
aI2
aa(lp457
I0
aI1
aI1
aI0
aI0
aI0
aI0
aI1
aI1
aI0
aI1
aI0
aI1
aI1
aI0
aI0
aI0
aI0
aI0
aI0
aI0
aI1
aI0
aI0
aI0
aI1
aI0
aI0
aI0
aI0
aI0
aI2
aI0
aa(lp458
I1
aI1
aI2
aI1
aI1
aI1
aI2
aI2
aI2
aI2
aI2
aI2
aI0
aI2
aI1
aI2
aI2
aI1
aI2
aI2
aI2
aI1
aI2
aI2
aI2
aI2
aI2
aI1
aI1
aI1
aI2
aI2
aI2
aa(lp459
I2
aI1
aI2
aI2
aI1
aI2
aI2
aI2
aI2
aI0
aI2
aI2
aI0
aI2
aI0
aI2
aI2
aI2
aI2
aI2
aI1
aI2
aI2
aI2
aI2
aI2
aI2
aI2
aI2
aI2
aI2
aI0
aI1
aa(lp460
I0
aI2
aI2
aI2
aI2
aI2
aI2
aI2
aI1
aI2
aI2
aI2
aI2
aI0
aI2
aI2
aI2
aI1
aI2
aI1
aI2
aI2
aI2
aI2
aI2
aI1
aI1
aI2
aI1
aI2
aI1
aI2
aI1
aa(lp461
I0
aI2
aI1
aI2
aI2
aI2
aI2
aI1
aI2
aI1
aI2
aI2
aI2
aI0
aI0
aI2
aI1
aI2
aI2
aI2
aI2
aI1
aI2
aI2
aI1
aI2
aI2
aI2
aI2
aI1
aI2
aI2
aI2
aa(lp462
I0
aI0
aI0
aI0
aI0
aI1
aI0
aI0
aI0
aI0
aI1
aI0
aI1
aI1
aI1
aI0
aI1
aI0
aI0
aI0
aI0
aI0
aI1
aI0
aI0
aI1
aI1
aI1
aI0
aI0
aI2
aI0
aI0
aa(lp463
I2
aI1
aI2
aI2
aI1
aI1
aI1
aI0
aI2
aI2
aI2
aI2
aI2
aI2
aI2
aI2
aI2
aI2
aI1
aI1
aI2
aI2
aI1
aI1
aI1
aI2
aI2
aI1
aI2
aI2
aI2
aI1
aI2
aa(lp464
I0
aI0
aI0
aI1
aI0
aI0
aI0
aI0
aI0
aI0
aI0
aI0
aI0
aI0
aI0
aI1
aI2
aI1
aI0
aI0
aI1
aI1
aI0
aI1
aI0
aI1
aI0
aI0
aI0
aI2
aI0
aI0
aI1
aa(lp465
I2
aI0
aI2
aI2
aI2
aI1
aI2
aI0
aI1
aI2
aI2
aI2
aI2
aI2
aI2
aI2
aI2
aI2
aI2
aI1
aI2
aI1
aI2
aI1
aI2
aI2
aI2
aI1
aI2
aI2
aI2
aI0
aI2
aa(lp466
I0
aI2
aI0
aI0
aI0
aI2
aI1
aI1
aI0
aI0
aI0
aI0
aI0
aI0
aI1
aI0
aI1
aI0
aI0
aI1
aI1
aI0
aI0
aI0
aI0
aI1
aI0
aI0
aI0
aI1
aI0
aI0
aI0
aa(lp467
I0
aI0
aI0
aI0
aI0
aI0
aI0
aI2
aI0
aI0
aI0
aI0
aI1
aI0
aI0
aI2
aI0
aI0
aI0
aI0
aI2
aI0
aI0
aI0
aI0
aI0
aI1
aI0
aI2
aI0
aI0
aI0
aI1
aa(lp468
I0
aI0
aI0
aI2
aI1
aI0
aI0
aI0
aI0
aI0
aI1
aI2
aI0
aI0
aI0
aI0
aI0
aI1
aI0
aI2
aI0
aI0
aI1
aI0
aI0
aI1
aI0
aI0
aI0
aI0
aI0
aI1
aI0
aa(lp469
I0
aI0
aI0
aI0
aI0
aI0
aI1
aI0
aI0
aI0
aI2
aI0
aI0
aI1
aI0
aI1
aI0
aI0
aI0
aI0
aI0
aI0
aI1
aI0
aI0
aI2
aI0
aI0
aI1
aI0
aI0
aI1
aI0
aa(lp470
I0
aI1
aI0
aI0
aI1
aI0
aI0
aI0
aI0
aI0
aI0
aI0
aI0
aI0
aI1
aI0
aI0
aI1
aI0
aI0
aI1
aI0
aI0
aI0
aI1
aI1
aI0
aI0
aI1
aI1
aI0
aI0
aI0
aa(lp471
I2
aI2
aI2
aI2
aI1
aI2
aI1
aI1
aI1
aI2
aI1
aI1
aI2
aI2
aI2
aI2
aI2
aI2
aI2
aI2
aI0
aI2
aI2
aI2
aI0
aI2
aI1
aI2
aI2
aI2
aI2
aI1
aI2
aa(lp472
I0
aI1
aI0
aI0
aI1
aI0
aI1
aI2
aI1
aI0
aI1
aI0
aI0
aI0
aI0
aI1
aI0
aI0
aI0
aI1
aI0
aI0
aI1
aI0
aI1
aI0
aI0
aI0
aI0
aI0
aI0
aI0
aI1
aa(lp473
I0
aI1
aI0
aI0
aI0
aI2
aI0
aI0
aI2
aI0
aI0
aI0
aI0
aI0
aI1
aI0
aI1
aI0
aI0
aI0
aI0
aI0
aI0
aI0
aI0
aI1
aI0
aI0
aI0
aI0
aI1
aI1
aI0
aa(lp474
I0
aI1
aI0
aI0
aI1
aI0
aI0
aI0
aI1
aI0
aI0
aI1
aI0
aI0
aI0
aI1
aI1
aI0
aI0
aI0
aI0
aI2
aI0
aI0
aI1
aI0
aI0
aI0
aI0
aI2
aI0
aI0
aI1
aa(lp475
I1
aI2
aI2
aI1
aI1
aI2
aI1
aI2
aI2
aI2
aI2
aI2
aI0
aI2
aI1
aI2
aI1
aI2
aI2
aI0
aI2
aI2
aI2
aI2
aI2
aI2
aI1
aI2
aI2
aI1
aI2
aI2
aI2
aa(lp476
I1
aI2
aI2
aI1
aI2
aI1
aI2
aI2
aI2
aI2
aI2
aI2
aI2
aI2
aI2
aI1
aI2
aI2
aI1
aI1
aI2
aI0
aI1
aI2
aI2
aI2
aI0
aI2
aI2
aI2
aI1
aI2
aI2
aa(lp477
I0
aI2
aI1
aI1
aI0
aI2
aI2
aI2
aI2
aI2
aI2
aI1
aI2
aI1
aI2
aI2
aI2
aI2
aI2
aI2
aI2
aI1
aI2
aI2
aI1
aI2
aI2
aI1
aI2
aI2
aI1
aI2
aI2
aa(lp478
I1
aI0
aI0
aI1
aI1
aI0
aI0
aI0
aI1
aI2
aI1
aI0
aI0
aI0
aI0
aI0
aI0
aI0
aI0
aI0
aI0
aI0
aI0
aI0
aI2
aI0
aI0
aI0
aI0
aI0
aI0
aI2
aI0
aa(lp479
I0
aI2
aI2
aI1
aI2
aI2
aI2
aI2
aI2
aI2
aI2
aI2
aI1
aI2
aI2
aI2
aI2
aI2
aI0
aI1
aI0
aI2
aI2
aI2
aI1
aI2
aI2
aI2
aI2
aI2
aI1
aI1
aI2
aa(lp480
I0
aI0
aI2
aI0
aI1
aI1
aI0
aI1
aI0
aI0
aI0
aI0
aI0
aI0
aI0
aI0
aI0
aI0
aI0
aI0
aI1
aI0
aI0
aI1
aI0
aI0
aI0
aI1
aI0
aI1
aI0
aI1
aI1
aa(lp481
I1
aI0
aI0
aI0
aI0
aI0
aI0
aI0
aI1
aI0
aI0
aI1
aI0
aI0
aI1
aI0
aI0
aI1
aI1
aI0
aI1
aI0
aI0
aI0
aI0
aI0
aI0
aI2
aI0
aI1
aI0
aI0
aI0
aa(lp482
I2
aI2
aI2
aI2
aI2
aI2
aI2
aI2
aI2
aI2
aI1
aI0
aI2
aI2
aI2
aI1
aI0
aI2
aI2
aI1
aI1
aI2
aI2
aI2
aI2
aI2
aI1
aI2
aI1
aI1
aI1
aI2
aI2
aa(lp483
I0
aI1
aI0
aI0
aI0
aI0
aI0
aI2
aI0
aI0
aI0
aI2
aI0
aI0
aI1
aI0
aI2
aI0
aI0
aI0
aI0
aI0
aI0
aI0
aI0
aI0
aI1
aI1
aI0
aI0
aI0
aI0
aI2
aa(lp484
I0
aI1
aI1
aI0
aI1
aI0
aI1
aI0
aI0
aI0
aI0
aI0
aI0
aI1
aI1
aI0
aI0
aI0
aI0
aI1
aI0
aI2
aI1
aI0
aI0
aI0
aI0
aI0
aI1
aI1
aI0
aI0
aI0
aa(lp485
I0
aI0
aI2
aI2
aI0
aI0
aI0
aI2
aI0
aI0
aI0
aI1
aI0
aI0
aI0
aI0
aI0
aI0
aI1
aI0
aI1
aI1
aI0
aI0
aI0
aI0
aI1
aI0
aI0
aI0
aI0
aI0
aI0
aa(lp486
I2
aI2
aI2
aI1
aI2
aI2
aI1
aI2
aI2
aI2
aI2
aI2
aI0
aI0
aI2
aI1
aI2
aI2
aI2
aI2
aI1
aI2
aI0
aI2
aI0
aI2
aI2
aI2
aI2
aI2
aI2
aI2
aI2
aa(lp487
I0
aI1
aI1
aI0
aI0
aI0
aI0
aI0
aI0
aI1
aI2
aI0
aI0
aI0
aI0
aI0
aI0
aI0
aI0
aI0
aI0
aI0
aI2
aI0
aI0
aI1
aI0
aI0
aI1
aI0
aI0
aI2
aI0
aa(lp488
I2
aI2
aI0
aI2
aI2
aI2
aI1
aI2
aI2
aI2
aI2
aI1
aI1
aI1
aI2
aI2
aI2
aI2
aI2
aI1
aI1
aI2
aI2
aI2
aI2
aI1
aI2
aI2
aI2
aI2
aI2
aI1
aI1
aa(lp489
I0
aI0
aI0
aI0
aI0
aI1
aI0
aI0
aI0
aI1
aI1
aI2
aI0
aI0
aI1
aI1
aI0
aI1
aI0
aI0
aI0
aI0
aI0
aI0
aI0
aI0
aI0
aI1
aI1
aI0
aI0
aI0
aI1
aa(lp490
I0
aI0
aI0
aI0
aI0
aI0
aI0
aI0
aI0
aI0
aI0
aI0
aI0
aI1
aI0
aI0
aI0
aI0
aI0
aI0
aI1
aI0
aI0
aI1
aI0
aI0
aI0
aI1
aI2
aI0
aI1
aI2
aI2
aa(lp491
I1
aI0
aI0
aI0
aI0
aI1
aI0
aI0
aI0
aI0
aI0
aI1
aI0
aI1
aI0
aI0
aI0
aI2
aI0
aI1
aI0
aI0
aI0
aI0
aI1
aI0
aI1
aI1
aI0
aI1
aI0
aI0
aI0
aa(lp492
I1
aI0
aI0
aI2
aI0
aI0
aI0
aI0
aI0
aI0
aI2
aI0
aI0
aI0
aI0
aI0
aI0
aI1
aI1
aI0
aI0
aI0
aI0
aI1
aI0
aI0
aI0
aI0
aI1
aI0
aI0
aI0
aI0
aa(lp493
I2
aI2
aI2
aI2
aI2
aI1
aI1
aI2
aI1
aI2
aI2
aI2
aI1
aI0
aI2
aI2
aI2
aI2
aI2
aI1
aI2
aI1
aI1
aI2
aI2
aI2
aI2
aI2
aI2
aI2
aI2
aI2
aI2
aa(lp494
I0
aI0
aI0
aI0
aI0
aI0
aI2
aI0
aI1
aI1
aI0
aI0
aI0
aI0
aI0
aI0
aI0
aI0
aI0
aI0
aI0
aI1
aI0
aI0
aI0
aI0
aI1
aI2
aI1
aI0
aI1
aI0
aI1
aa(lp495
I2
aI1
aI2
aI2
aI2
aI2
aI2
aI1
aI2
aI2
aI2
aI2
aI1
aI2
aI2
aI1
aI0
aI2
aI2
aI2
aI2
aI0
aI2
aI2
aI2
aI2
aI2
aI2
aI2
aI2
aI1
aI1
aI2
aa(lp496
I0
aI0
aI1
aI0
aI0
aI1
aI0
aI1
aI1
aI0
aI0
aI0
aI0
aI0
aI0
aI2
aI0
aI0
aI0
aI0
aI0
aI0
aI1
aI0
aI1
aI0
aI1
aI0
aI0
aI1
aI0
aI1
aI0
aa(lp497
I2
aI2
aI2
aI1
aI1
aI2
aI2
aI2
aI2
aI1
aI2
aI1
aI2
aI2
aI2
aI1
aI2
aI2
aI1
aI2
aI1
aI2
aI1
aI1
aI2
aI2
aI2
aI1
aI2
aI2
aI2
aI2
aI2
aa(lp498
I0
aI1
aI2
aI2
aI1
aI2
aI2
aI2
aI2
aI2
aI2
aI2
aI1
aI2
aI1
aI1
aI2
aI2
aI2
aI2
aI2
aI2
aI1
aI1
aI2
aI2
aI1
aI2
aI2
aI2
aI1
aI2
aI2
aa(lp499
I2
aI2
aI1
aI1
aI2
aI2
aI2
aI1
aI2
aI1
aI2
aI2
aI1
aI2
aI0
aI2
aI2
aI2
aI2
aI1
aI2
aI2
aI2
aI2
aI2
aI2
aI2
aI2
aI2
aI1
aI2
aI2
aI1
aa(lp500
I0
aI0
aI2
aI1
aI0
aI0
aI0
aI0
aI0
aI0
aI1
aI0
aI0
aI0
aI2
aI0
aI0
aI0
aI0
aI1
aI0
aI0
aI1
aI1
aI0
aI0
aI0
aI1
aI0
aI0
aI0
aI0
aI0
aa(lp501
I2
aI1
aI2
aI2
aI1
aI2
aI2
aI2
aI2
aI2
aI2
aI2
aI2
aI2
aI2
aI1
aI1
aI1
aI2
aI2
aI2
aI2
aI1
aI2
aI0
aI1
aI1
aI1
aI2
aI2
aI2
aI2
aI2
aa.