(lp1
(lp2
I0
aI0
aI0
aI0
aI0
aI0
aI0
aI0
aI0
aI0
aI0
aa(lp3
I1
aI1
aI1
aI1
aI1
aI1
aI1
aI1
aI1
aI1
aI1
aa(lp4
I2
aI2
aI2
aI2
aI2
aI2
aI2
aI2
aI2
aI2
aI2
aa(lp5
I2
aI0
aI1
aI2
aI2
aI2
aI1
aI1
aI0
aI1
aI0
aa(lp6
I1
aI1
aI0
aI2
aI0
aI1
aI1
aI2
aI1
aI2
aI0
aa(lp7
I2
aI1
aI1
aI1
aI1
aI1
aI1
aI0
aI2
aI0
aI2
aa(lp8
I1
aI1
aI2
aI2
aI0
aI0
aI0
aI1
aI0
aI1
aI0
aa(lp9
I1
aI2
aI1
aI1
aI2
aI2
aI1
aI1
aI2
aI0
aI2
aa(lp10
I0
aI2
aI0
aI0
aI0
aI1
aI2
aI0
aI0
aI0
aI2
aa(lp11
I1
aI2
aI1
aI1
aI0
aI0
aI0
aI2
aI1
aI2
aI0
aa(lp12
I0
aI2
aI0
aI2
aI2
aI1
aI1
aI1
aI2
aI0
aI1
aa(lp13
I1
aI2
aI1
aI0
aI0
aI0
aI0
aI1
aI1
aI1
aI1
aa(lp14
I2
aI0
aI0
aI2
aI0
aI2
aI0
aI2
aI0
aI2
aI2
aa(lp15
I1
aI1
aI2
aI2
aI1
aI2
aI2
aI1
aI2
aI1
aI1
aa(lp16
I0
aI1
aI2
aI2
aI2
aI1
aI0
aI2
aI0
aI0
aI2
aa(lp17
I1
aI2
aI2
aI2
aI0
aI2
aI0
aI0
aI0
aI1
aI1
aa(lp18
I0
aI0
aI0
aI0
aI0
aI0
aI1
aI1
aI1
aI2
aI0
aa(lp19
I2
aI0
aI2
aI2
aI2
aI1
aI2
aI0
aI0
aI0
aI0
aa(lp20
I2
aI1
aI0
aI2
aI2
aI1
aI2
aI1
aI1
aI1
aI2
aa(lp21
I2
aI1
aI1
aI0
aI0
aI1
aI1
aI0
aI1
aI1
aI0
aa(lp22
I0
aI2
aI1
aI2
aI0
aI2
aI0
aI0
aI0
aI1
aI2
aa(lp23
I0
aI1
aI0
aI0
aI1
aI1
aI1
aI1
aI2
aI1
aI0
aa(lp24
I0
aI2
aI2
aI2
aI0
aI1
aI1
aI1
aI2
aI0
aI0
aa(lp25
I1
aI0
aI2
aI2
aI2
aI0
aI0
aI1
aI2
aI2
aI2
aa(lp26
I0
aI1
aI1
aI1
aI0
aI1
aI1
aI1
aI2
aI0
aI0
aa(lp27
I2
aI2
aI1
aI2
aI2
aI0
aI2
aI1
aI2
aI0
aI1
aa(lp28
I0
aI2
aI0
aI0
aI2
aI1
aI2
aI0
aI2
aI0
aI2
aa(lp29
I0
aI2
aI2
aI1
aI0
aI1
aI2
aI0
aI2
aI1
aI2
aa(lp30
I2
aI1
aI0
aI0
aI2
aI2
aI1
aI0
aI1
aI2
aI2
aa(lp31
I0
aI0
aI1
aI0
aI0
aI2
aI0
aI0
aI1
aI0
aI1
aa(lp32
I2
aI0
aI0
aI1
aI0
aI2
aI2
aI0
aI0
aI2
aI1
aa(lp33
I2
aI1
aI2
aI0
aI1
aI0
aI2
aI0
aI2
aI0
aI1
aa(lp34
I0
aI1
aI2
aI0
aI1
aI1
aI2
aI0
aI1
aI0
aI2
aa(lp35
I2
aI0
aI2
aI2
aI0
aI0
aI2
aI0
aI1
aI0
aI0
aa(lp36
I2
aI0
aI2
aI0
aI1
aI2
aI0
aI2
aI2
aI0
aI0
aa(lp37
I0
aI0
aI2
aI0
aI0
aI0
aI1
aI2
aI2
aI0
aI1
aa(lp38
I1
aI1
aI0
aI1
aI0
aI0
aI0
aI2
aI0
aI0
aI0
aa(lp39
I1
aI0
aI2
aI2
aI2
aI2
aI0
aI2
aI0
aI1
aI2
aa(lp40
I0
aI1
aI1
aI0
aI1
aI0
aI2
aI2
aI1
aI0
aI0
aa(lp41
I1
aI2
aI2
aI2
aI2
aI1
aI1
aI1
aI0
aI0
aI1
aa(lp42
I1
aI0
aI1
aI0
aI2
aI0
aI1
aI0
aI1
aI0
aI1
aa(lp43
I0
aI1
aI0
aI1
aI1
aI0
aI0
aI0
aI2
aI0
aI0
aa(lp44
I0
aI1
aI0
aI2
aI1
aI2
aI0
aI1
aI2
aI1
aI2
aa(lp45
I2
aI2
aI1
aI1
aI0
aI2
aI0
aI2
aI0
aI2
aI1
aa(lp46
I1
aI1
aI0
aI1
aI1
aI2
aI1
aI0
aI1
aI1
aI1
aa(lp47
I2
aI2
aI1
aI1
aI1
aI1
aI2
aI0
aI1
aI2
aI0
aa(lp48
I0
aI2
aI2
aI2
aI0
aI1
aI1
aI0
aI0
aI1
aI2
aa(lp49
I2
aI2
aI0
aI1
aI1
aI2
aI0
aI1
aI2
aI2
aI0
aa(lp50
I1
aI0
aI0
aI2
aI1
aI0
aI2
aI2
aI1
aI1
aI0
aa(lp51
I2
aI2
aI2
aI1
aI2
aI0
aI1
aI2
aI2
aI0
aI2
aa(lp52
I1
aI1
aI1
aI0
aI0
aI0
aI2
aI0
aI0
aI0
aI1
aa(lp53
I1
aI2
aI0
aI2
aI2
aI1
aI0
aI2
aI2
aI0
aI0
aa(lp54
I2
aI1
aI0
aI0
aI1
aI1
aI1
aI1
aI0
aI0
aI2
aa(lp55
I0
aI0
aI0
aI2
aI2
aI1
aI1
aI0
aI1
aI0
aI1
aa(lp56
I0
aI0
aI2
aI1
aI1
aI0
aI1
aI2
aI1
aI0
aI2
aa(lp57
I1
aI2
aI2
aI2
aI1
aI2
aI1
aI1
aI0
aI1
aI1
aa(lp58
I1
aI0
aI0
aI1
aI0
aI2
aI0
aI1
aI2
aI0
aI0
aa(lp59
I2
aI2
aI0
aI0
aI1
aI1
aI2
aI0
aI0
aI0
aI0
aa(lp60
I1
aI2
aI1
aI1
aI1
aI0
aI1
aI0
aI1
aI2
aI0
aa(lp61
I0
aI1
aI1
aI1
aI0
aI2
aI2
aI2
aI0
aI2
aI1
aa(lp62
I2
aI2
aI0
aI1
aI1
aI0
aI1
aI1
aI1
aI1
aI0
aa(lp63
I1
aI0
aI0
aI1
aI1
aI0
aI2
aI1
aI0
aI2
aI2
aa(lp64
I2
aI2
aI2
aI1
aI2
aI1
aI2
aI1
aI2
aI1
aI1
aa(lp65
I0
aI0
aI1
aI2
aI0
aI2
aI0
aI1
aI0
aI2
aI2
aa(lp66
I0
aI0
aI1
aI1
aI0
aI2
aI2
aI0
aI0
aI1
aI1
aa(lp67
I1
aI2
aI0
aI0
aI0
aI1
aI2
aI0
aI1
aI2
aI0
aa(lp68
I0
aI0
aI2
aI0
aI1
aI1
aI2
aI0
aI2
aI2
aI2
aa(lp69
I1
aI1
aI2
aI2
aI2
aI2
aI2
aI0
aI2
aI2
aI1
aa(lp70
I1
aI1
aI1
aI2
aI1
aI2
aI1
aI2
aI1
aI2
aI2
aa(lp71
I2
aI1
aI2
aI1
aI0
aI1
aI1
aI1
aI1
aI1
aI0
aa(lp72
I0
aI1
aI2
aI1
aI0
aI1
aI1
aI1
aI2
aI0
aI0
aa(lp73
I2
aI1
aI0
aI0
aI1
aI1
aI2
aI0
aI0
aI1
aI0
aa(lp74
I1
aI0
aI1
aI2
aI2
aI0
aI2
aI1
aI0
aI0
aI1
aa(lp75
I1
aI0
aI0
aI0
aI0
aI0
aI0
aI2
aI0
aI2
aI1
aa(lp76
I0
aI2
aI1
aI0
aI2
aI2
aI2
aI0
aI0
aI2
aI1
aa(lp77
I0
aI2
aI2
aI1
aI0
aI2
aI2
aI1
aI1
aI1
aI0
aa(lp78
I2
aI0
aI2
aI0
aI1
aI1
aI1
aI2
aI2
aI0
aI2
aa(lp79
I0
aI1
aI2
aI1
aI1
aI0
aI1
aI2
aI0
aI2
aI1
aa(lp80
I2
aI1
aI0
aI2
aI2
aI1
aI1
aI1
aI2
aI2
aI0
aa(lp81
I2
aI2
aI2
aI0
aI2
aI0
aI2
aI2
aI0
aI1
aI2
aa(lp82
I1
aI2
aI2
aI2
aI0
aI2
aI1
aI1
aI1
aI1
aI0
aa(lp83
I2
aI2
aI1
aI2
aI0
aI2
aI1
aI0
aI1
aI0
aI0
aa(lp84
I2
aI0
aI1
aI1
aI1
aI1
aI2
aI2
aI0
aI1
aI2
aa(lp85
I1
aI0
aI1
aI0
aI0
aI1
aI1
aI2
aI0
aI1
aI1
aa(lp86
I2
aI0
aI1
aI0
aI1
aI2
aI1
aI0
aI1
aI2
aI2
aa(lp87
I1
aI1
aI2
aI1
aI1
aI0
aI0
aI2
aI0
aI2
aI0
aa(lp88
I0
aI0
aI1
aI2
aI1
aI0
aI0
aI2
aI0
aI0
aI2
aa(lp89
I1
aI1
aI0
aI2
aI1
aI0
aI0
aI1
aI2
aI1
aI1
aa(lp90
I2
aI1
aI0
aI1
aI0
aI1
aI1
aI1
aI2
aI1
aI0
aa(lp91
I1
aI2
aI2
aI1
aI2
aI0
aI1
aI0
aI2
aI0
aI1
aa(lp92
I1
aI2
aI1
aI2
aI2
aI1
aI0
aI0
aI0
aI1
aI1
aa(lp93
I2
aI1
aI0
aI0
aI1
aI0
aI2
aI0
aI1
aI2
aI0
aa(lp94
I0
aI0
aI1
aI2
aI0
aI2
aI1
aI2
aI1
aI0
aI2
aa(lp95
I0
aI1
aI0
aI2
aI2
aI0
aI2
aI1
aI1
aI2
aI0
aa(lp96
I2
aI0
aI0
aI1
aI2
aI1
aI2
aI0
aI0
aI0
aI1
aa(lp97
I0
aI0
aI1
aI0
aI1
aI0
aI2
aI1
aI1
aI2
aI1
aa(lp98
I0
aI1
aI0
aI2
aI0
aI0
aI0
aI1
aI1
aI0
aI0
aa(lp99
I1
aI2
aI0
aI2
aI1
aI1
aI1
aI1
aI1
aI0
aI2
aa(lp100
I0
aI2
aI1
aI0
aI2
aI1
aI1
aI2
aI2
aI2
aI1
aa(lp101
I2
aI1
aI0
aI2
aI0
aI0
aI2
aI2
aI1
aI2
aI2
aa(lp102
I0
aI2
aI1
aI2
aI1
aI0
aI1
aI2
aI1
aI1
aI1
aa(lp103
I2
aI1
aI1
aI0
aI2
aI0
aI0
aI1
aI2
aI2
aI0
aa(lp104
I0
aI2
aI0
aI2
aI1
aI1
aI1
aI0
aI0
aI1
aI1
aa(lp105
I1
aI1
aI0
aI2
aI0
aI2
aI2
aI1
aI2
aI1
aI1
aa(lp106
I1
aI0
aI2
aI2
aI0
aI0
aI0
aI1
aI2
aI2
aI2
aa(lp107
I2
aI1
aI2
aI0
aI0
aI0
aI0
aI2
aI2
aI1
aI1
aa(lp108
I0
aI0
aI2
aI2
aI2
aI1
aI2
aI1
aI2
aI2
aI1
aa(lp109
I1
aI0
aI0
aI2
aI1
aI2
aI0
aI0
aI2
aI0
aI0
aa(lp110
I2
aI0
aI1
aI2
aI2
aI2
aI1
aI2
aI1
aI1
aI2
aa(lp111
I0
aI0
aI0
aI0
aI0
aI0
aI1
aI2
aI2
aI0
aI2
aa(lp112
I2
aI1
aI2
aI2
aI0
aI0
aI0
aI1
aI2
aI2
aI2
aa(lp113
I1
aI1
aI0
aI1
aI1
aI0
aI0
aI2
aI2
aI0
aI2
aa(lp114
I0
aI0
aI0
aI0
aI1
aI1
aI2
aI0
aI2
aI2
aI1
aa(lp115
I1
aI2
aI1
aI0
aI2
aI2
aI2
aI1
aI0
aI0
aI0
aa(lp116
I1
aI2
aI0
aI1
aI0
aI2
aI1
aI1
aI1
aI2
aI0
aa(lp117
I0
aI2
aI1
aI1
aI1
aI2
aI0
aI1
aI0
aI0
aI2
aa(lp118
I0
aI2
aI1
aI2
aI0
aI2
aI0
aI0
aI0
aI2
aI0
aa(lp119
I2
aI2
aI1
aI1
aI2
aI2
aI2
aI0
aI1
aI2
aI1
aa(lp120
I2
aI2
aI0
aI1
aI2
aI2
aI2
aI2
aI0
aI2
aI2
aa(lp121
I1
aI0
aI1
aI2
aI0
aI2
aI0
aI2
aI1
aI1
aI0
aa(lp122
I0
aI0
aI0
aI2
aI2
aI1
aI2
aI1
aI0
aI0
aI1
aa(lp123
I2
aI0
aI1
aI1
aI0
aI1
aI1
aI0
aI0
aI0
aI2
aa(lp124
I2
aI2
aI0
aI1
aI0
aI2
aI2
aI2
aI2
aI2
aI0
aa(lp125
I0
aI1
aI0
aI2
aI2
aI2
aI0
aI2
aI1
aI1
aI1
aa(lp126
I2
aI0
aI2
aI0
aI0
aI0
aI1
aI0
aI0
aI0
aI2
aa(lp127
I0
aI2
aI1
aI0
aI1
aI1
aI0
aI1
aI2
aI2
aI2
aa(lp128
I1
aI0
aI1
aI2
aI1
aI0
aI0
aI2
aI0
aI0
aI1
aa(lp129
I0
aI0
aI2
aI0
aI1
aI0
aI1
aI1
aI0
aI2
aI0
aa(lp130
I1
aI1
aI2
aI2
aI0
aI0
aI1
aI1
aI0
aI2
aI2
aa(lp131
I0
aI1
aI0
aI2
aI1
aI0
aI0
aI0
aI1
aI0
aI2
aa(lp132
I1
aI1
aI0
aI0
aI1
aI0
aI1
aI0
aI1
aI1
aI1
aa(lp133
I1
aI0
aI1
aI1
aI2
aI2
aI0
aI2
aI1
aI0
aI2
aa(lp134
I0
aI2
aI0
aI2
aI1
aI2
aI1
aI0
aI0
aI2
aI2
aa(lp135
I0
aI2
aI0
aI0
aI2
aI2
aI1
aI2
aI0
aI1
aI2
aa(lp136
I2
aI1
aI2
aI0
aI2
aI1
aI2
aI2
aI0
aI0
aI0
aa(lp137
I1
aI0
aI0
aI0
aI1
aI1
aI2
aI1
aI2
aI2
aI0
aa(lp138
I0
aI0
aI2
aI2
aI2
aI1
aI1
aI0
aI1
aI1
aI1
aa(lp139
I2
aI1
aI2
aI0
aI0
aI0
aI1
aI0
aI2
aI0
aI2
aa(lp140
I1
aI2
aI1
aI0
aI0
aI0
aI2
aI0
aI1
aI1
aI2
aa(lp141
I1
aI0
aI0
aI1
aI2
aI1
aI0
aI1
aI1
aI1
aI2
aa(lp142
I1
aI0
aI0
aI2
aI0
aI1
aI0
aI1
aI0
aI0
aI0
aa(lp143
I0
aI1
aI1
aI1
aI1
aI1
aI2
aI2
aI0
aI0
aI2
aa(lp144
I2
aI1
aI0
aI2
aI2
aI0
aI2
aI2
aI1
aI1
aI1
aa(lp145
I1
aI2
aI1
aI1
aI0
aI2
aI0
aI1
aI1
aI1
aI0
aa(lp146
I1
aI1
aI2
aI2
aI2
aI1
aI0
aI1
aI0
aI2
aI0
aa(lp147
I1
aI0
aI2
aI2
aI0
aI2
aI2
aI0
aI1
aI2
aI1
aa(lp148
I0
aI2
aI2
aI1
aI2
aI2
aI2
aI1
aI1
aI0
aI1
aa(lp149
I0
aI0
aI0
aI0
aI0
aI0
aI1
aI0
aI1
aI1
aI2
aa(lp150
I1
aI2
aI2
aI2
aI0
aI1
aI1
aI1
aI1
aI1
aI1
aa(lp151
I1
aI1
aI2
aI0
aI1
aI0
aI0
aI0
aI0
aI2
aI2
aa(lp152
I2
aI2
aI0
aI1
aI1
aI0
aI0
aI0
aI2
aI2
aI0
aa(lp153
I2
aI2
aI1
aI1
aI0
aI1
aI0
aI1
aI2
aI0
aI0
aa(lp154
I1
aI1
aI2
aI0
aI2
aI1
aI1
aI1
aI0
aI2
aI1
aa(lp155
I2
aI2
aI0
aI0
aI2
aI1
aI2
aI0
aI2
aI1
aI2
aa(lp156
I1
aI2
aI2
aI0
aI0
aI0
aI0
aI0
aI1
aI1
aI1
aa(lp157
I2
aI1
aI0
aI0
aI2
aI1
aI0
aI1
aI0
aI0
aI0
aa(lp158
I0
aI0
aI0
aI0
aI1
aI2
aI1
aI2
aI1
aI1
aI2
aa(lp159
I0
aI2
aI1
aI0
aI0
aI2
aI1
aI0
aI2
aI2
aI0
aa(lp160
I1
aI2
aI0
aI0
aI0
aI1
aI1
aI1
aI0
aI1
aI1
aa(lp161
I1
aI1
aI0
aI0
aI1
aI1
aI2
aI0
aI0
aI1
aI0
aa(lp162
I2
aI2
aI2
aI0
aI0
aI1
aI0
aI2
aI0
aI0
aI1
aa(lp163
I2
aI2
aI1
aI1
aI2
aI0
aI0
aI0
aI0
aI2
aI0
aa(lp164
I2
aI0
aI1
aI2
aI2
aI1
aI1
aI1
aI1
aI1
aI1
aa(lp165
I2
aI0
aI1
aI2
aI1
aI0
aI2
aI2
aI1
aI0
aI1
aa(lp166
I1
aI2
aI0
aI1
aI2
aI2
aI2
aI2
aI1
aI1
aI0
aa(lp167
I1
aI1
aI1
aI0
aI2
aI1
aI2
aI0
aI1
aI1
aI0
aa(lp168
I2
aI0
aI2
aI1
aI1
aI1
aI1
aI2
aI1
aI0
aI0
aa(lp169
I0
aI1
aI2
aI0
aI0
aI1
aI2
aI2
aI2
aI2
aI0
aa(lp170
I0
aI1
aI0
aI2
aI2
aI2
aI1
aI2
aI1
aI1
aI0
aa(lp171
I0
aI0
aI0
aI0
aI0
aI2
aI1
aI0
aI0
aI0
aI2
aa(lp172
I0
aI1
aI0
aI2
aI0
aI2
aI1
aI1
aI0
aI0
aI0
aa(lp173
I1
aI0
aI2
aI0
aI2
aI0
aI0
aI1
aI2
aI0
aI2
aa(lp174
I0
aI1
aI1
aI1
aI0
aI0
aI1
aI2
aI1
aI0
aI1
aa(lp175
I1
aI0
aI1
aI2
aI2
aI2
aI0
aI1
aI2
aI1
aI0
aa(lp176
I1
aI1
aI1
aI2
aI1
aI1
aI2
aI1
aI2
aI0
aI2
aa(lp177
I2
aI2
aI0
aI2
aI0
aI1
aI1
aI2
aI1
aI0
aI1
aa(lp178
I1
aI1
aI1
aI1
aI2
aI1
aI2
aI0
aI1
aI0
aI1
aa(lp179
I0
aI2
aI2
aI1
aI2
aI2
aI0
aI0
aI2
aI0
aI2
aa(lp180
I2
aI0
aI1
aI1
aI2
aI2
aI1
aI0
aI1
aI1
aI1
aa(lp181
I2
aI1
aI0
aI2
aI2
aI0
aI1
aI0
aI2
aI2
aI2
aa(lp182
I1
aI1
aI2
aI0
aI2
aI2
aI0
aI0
aI1
aI1
aI2
aa(lp183
I2
aI1
aI2
aI1
aI0
aI1
aI2
aI2
aI2
aI2
aI2
aa(lp184
I1
aI0
aI0
aI0
aI0
aI1
aI1
aI1
aI1
aI1
aI0
aa(lp185
I0
aI2
aI1
aI1
aI0
aI0
aI1
aI2
aI1
aI1
aI0
aa(lp186
I0
aI2
aI0
aI2
aI1
aI1
aI0
aI2
aI1
aI2
aI2
aa(lp187
I1
aI1
aI1
aI0
aI0
aI2
aI1
aI0
aI0
aI2
aI2
aa(lp188
I2
aI0
aI0
aI0
aI2
aI2
aI0
aI1
aI0
aI1
aI1
aa(lp189
I2
aI1
aI2
aI0
aI1
aI2
aI0
aI2
aI0
aI2
aI1
aa(lp190
I1
aI2
aI2
aI1
aI1
aI2
aI0
aI2
aI2
aI1
aI2
aa(lp191
I0
aI1
aI0
aI1
aI0
aI1
aI0
aI1
aI1
aI2
aI0
aa(lp192
I0
aI1
aI2
aI0
aI2
aI0
aI1
aI0
aI0
aI2
aI0
aa(lp193
I0
aI1
aI2
aI2
aI1
aI1
aI1
aI0
aI1
aI2
aI0
aa(lp194
I1
aI1
aI2
aI1
aI1
aI2
aI1
aI1
aI2
aI1
aI2
aa(lp195
I1
aI0
aI2
aI1
aI2
aI2
aI1
aI1
aI1
aI1
aI2
aa(lp196
I2
aI0
aI2
aI0
aI2
aI0
aI0
aI0
aI2
aI2
aI1
aa(lp197
I1
aI2
aI0
aI0
aI1
aI2
aI0
aI0
aI0
aI1
aI2
aa(lp198
I1
aI1
aI0
aI1
aI1
aI0
aI0
aI1
aI1
aI1
aI1
aa(lp199
I0
aI1
aI1
aI0
aI1
aI0
aI2
aI0
aI0
aI2
aI0
aa(lp200
I0
aI1
aI0
aI0
aI0
aI1
aI1
aI2
aI0
aI1
aI0
aa(lp201
I1
aI1
aI1
aI1
aI0
aI1
aI1
aI0
aI1
aI1
aI1
aa(lp202
I1
aI0
aI0
aI0
aI0
aI0
aI0
aI2
aI1
aI1
aI1
aa(lp203
I0
aI0
aI1
aI2
aI2
aI1
aI0
aI0
aI1
aI0
aI1
aa(lp204
I0
aI0
aI2
aI1
aI0
aI1
aI0
aI0
aI0
aI2
aI1
aa(lp205
I1
aI0
aI1
aI2
aI1
aI1
aI1
aI0
aI2
aI0
aI0
aa(lp206
I0
aI0
aI1
aI1
aI0
aI2
aI0
aI1
aI2
aI1
aI0
aa(lp207
I1
aI0
aI2
aI1
aI1
aI2
aI1
aI0
aI1
aI2
aI0
aa(lp208
I1
aI2
aI0
aI1
aI0
aI1
aI0
aI0
aI2
aI2
aI2
aa(lp209
I1
aI1
aI0
aI0
aI2
aI1
aI1
aI2
aI0
aI2
aI1
aa(lp210
I0
aI0
aI0
aI2
aI0
aI1
aI1
aI0
aI1
aI2
aI1
aa(lp211
I1
aI1
aI1
aI2
aI2
aI1
aI1
aI2
aI1
aI0
aI2
aa(lp212
I0
aI0
aI2
aI2
aI1
aI0
aI1
aI0
aI1
aI1
aI1
aa(lp213
I0
aI0
aI1
aI2
aI1
aI2
aI0
aI1
aI2
aI2
aI2
aa(lp214
I2
aI1
aI0
aI0
aI1
aI0
aI1
aI0
aI1
aI1
aI1
aa(lp215
I2
aI2
aI1
aI2
aI0
aI1
aI0
aI2
aI0
aI2
aI1
aa(lp216
I2
aI2
aI1
aI2
aI1
aI1
aI0
aI1
aI2
aI1
aI1
aa(lp217
I0
aI2
aI2
aI2
aI0
aI2
aI2
aI2
aI0
aI1
aI2
aa(lp218
I2
aI2
aI1
aI2
aI2
aI2
aI0
aI1
aI1
aI0
aI1
aa(lp219
I1
aI2
aI2
aI2
aI0
aI1
aI1
aI0
aI1
aI1
aI0
aa(lp220
I1
aI1
aI2
aI0
aI0
aI1
aI2
aI2
aI2
aI1
aI2
aa(lp221
I1
aI1
aI0
aI2
aI2
aI0
aI1
aI2
aI1
aI0
aI1
aa(lp222
I0
aI1
aI1
aI0
aI0
aI1
aI1
aI0
aI1
aI1
aI2
aa(lp223
I1
aI2
aI2
aI1
aI1
aI1
aI1
aI1
aI1
aI0
aI0
aa(lp224
I0
aI2
aI2
aI1
aI2
aI0
aI2
aI0
aI0
aI0
aI0
aa(lp225
I2
aI2
aI2
aI1
aI1
aI0
aI2
aI0
aI0
aI1
aI2
aa(lp226
I1
aI0
aI2
aI1
aI2
aI0
aI2
aI0
aI2
aI0
aI1
aa(lp227
I1
aI2
aI1
aI2
aI2
aI2
aI2
aI0
aI2
aI0
aI0
aa(lp228
I1
aI0
aI2
aI0
aI0
aI0
aI0
aI1
aI0
aI0
aI0
aa(lp229
I1
aI1
aI2
aI2
aI2
aI0
aI2
aI1
aI0
aI0
aI2
aa(lp230
I2
aI0
aI0
aI1
aI2
aI0
aI1
aI1
aI0
aI1
aI1
aa(lp231
I0
aI2
aI1
aI1
aI1
aI2
aI2
aI1
aI1
aI2
aI1
aa(lp232
I1
aI0
aI2
aI0
aI2
aI2
aI2
aI2
aI1
aI2
aI1
aa(lp233
I0
aI2
aI2
aI1
aI1
aI1
aI1
aI2
aI0
aI2
aI2
aa(lp234
I2
aI0
aI0
aI2
aI2
aI1
aI1
aI2
aI2
aI2
aI2
aa(lp235
I1
aI1
aI0
aI0
aI0
aI1
aI1
aI2
aI0
aI0
aI0
aa(lp236
I2
aI1
aI2
aI2
aI1
aI1
aI2
aI1
aI1
aI1
aI0
aa(lp237
I1
aI1
aI2
aI2
aI1
aI2
aI1
aI2
aI2
aI0
aI2
aa(lp238
I0
aI1
aI1
aI0
aI0
aI1
aI2
aI1
aI1
aI0
aI0
aa(lp239
I1
aI1
aI0
aI0
aI0
aI1
aI0
aI1
aI0
aI0
aI1
aa(lp240
I2
aI0
aI0
aI1
aI0
aI2
aI0
aI1
aI2
aI1
aI0
aa(lp241
I2
aI1
aI1
aI0
aI0
aI0
aI1
aI0
aI0
aI2
aI0
aa(lp242
I0
aI1
aI0
aI0
aI0
aI1
aI1
aI0
aI2
aI0
aI0
aa(lp243
I1
aI2
aI1
aI0
aI2
aI2
aI0
aI1
aI1
aI2
aI1
aa(lp244
I2
aI0
aI2
aI2
aI2
aI0
aI1
aI0
aI2
aI2
aI1
aa(lp245
I1
aI1
aI2
aI2
aI2
aI0
aI0
aI1
aI0
aI2
aI2
aa(lp246
I1
aI2
aI2
aI1
aI2
aI1
aI2
aI1
aI1
aI2
aI0
aa(lp247
I1
aI0
aI0
aI2
aI0
aI1
aI2
aI0
aI0
aI1
aI2
aa(lp248
I0
aI1
aI1
aI2
aI1
aI0
aI2
aI2
aI0
aI2
aI2
aa(lp249
I0
aI1
aI0
aI1
aI1
aI0
aI1
aI1
aI1
aI2
aI0
aa(lp250
I2
aI1
aI1
aI1
aI2
aI1
aI2
aI0
aI0
aI2
aI1
aa(lp251
I0
aI2
aI1
aI2
aI2
aI1
aI1
aI1
aI1
aI0
aI2
aa(lp252
I1
aI0
aI0
aI0
aI1
aI0
aI2
aI1
aI0
aI0
aI1
aa(lp253
I1
aI1
aI1
aI2
aI2
aI0
aI1
aI1
aI1
aI1
aI2
aa(lp254
I2
aI1
aI2
aI0
aI1
aI1
aI0
aI2
aI0
aI2
aI2
aa(lp255
I0
aI2
aI0
aI2
aI2
aI0
aI1
aI2
aI2
aI2
aI1
aa(lp256
I2
aI0
aI0
aI2
aI2
aI2
aI1
aI1
aI0
aI2
aI2
aa(lp257
I1
aI0
aI0
aI0
aI0
aI1
aI1
aI0
aI1
aI1
aI0
aa(lp258
I0
aI0
aI0
aI1
aI1
aI0
aI1
aI0
aI1
aI1
aI0
aa(lp259
I0
aI0
aI1
aI0
aI1
aI0
aI1
aI0
aI2
aI2
aI2
aa(lp260
I0
aI1
aI0
aI0
aI0
aI2
aI1
aI0
aI0
aI1
aI2
aa(lp261
I0
aI1
aI1
aI1
aI2
aI2
aI1
aI1
aI1
aI2
aI1
aa(lp262
I2
aI2
aI2
aI2
aI2
aI1
aI0
aI1
aI0
aI1
aI1
aa(lp263
I1
aI2
aI0
aI2
aI1
aI2
aI2
aI0
aI2
aI2
aI2
aa(lp264
I1
aI2
aI2
aI2
aI0
aI0
aI1
aI1
aI1
aI2
aI1
aa(lp265
I0
aI1
aI0
aI2
aI0
aI0
aI1
aI2
aI1
aI0
aI2
aa(lp266
I0
aI1
aI2
aI0
aI1
aI2
aI0
aI0
aI0
aI2
aI0
aa(lp267
I2
aI0
aI0
aI0
aI0
aI0
aI1
aI0
aI2
aI2
aI1
aa(lp268
I1
aI2
aI1
aI1
aI2
aI0
aI0
aI0
aI1
aI1
aI0
aa(lp269
I2
aI2
aI2
aI1
aI0
aI2
aI0
aI0
aI1
aI1
aI2
aa(lp270
I0
aI1
aI0
aI0
aI2
aI2
aI2
aI2
aI0
aI0
aI0
aa(lp271
I0
aI1
aI0
aI0
aI1
aI2
aI0
aI2
aI0
aI2
aI0
aa(lp272
I2
aI0
aI1
aI0
aI2
aI2
aI2
aI1
aI1
aI2
aI1
aa(lp273
I2
aI0
aI1
aI2
aI2
aI2
aI0
aI2
aI2
aI1
aI0
aa(lp274
I2
aI2
aI1
aI2
aI2
aI2
aI0
aI1
aI2
aI2
aI2
aa(lp275
I2
aI2
aI2
aI2
aI1
aI2
aI0
aI2
aI1
aI0
aI2
aa(lp276
I2
aI2
aI0
aI2
aI2
aI0
aI0
aI2
aI1
aI1
aI2
aa(lp277
I1
aI1
aI1
aI1
aI0
aI1
aI0
aI0
aI2
aI0
aI2
aa(lp278
I2
aI0
aI2
aI2
aI1
aI0
aI1
aI1
aI0
aI0
aI0
aa(lp279
I2
aI2
aI2
aI1
aI2
aI1
aI0
aI2
aI1
aI2
aI0
aa(lp280
I0
aI0
aI1
aI2
aI2
aI2
aI0
aI1
aI0
aI1
aI0
aa(lp281
I2
aI2
aI2
aI2
aI2
aI2
aI1
aI1
aI0
aI0
aI2
aa(lp282
I2
aI2
aI2
aI2
aI1
aI0
aI1
aI2
aI0
aI1
aI2
aa(lp283
I1
aI1
aI1
aI2
aI0
aI0
aI1
aI0
aI0
aI2
aI1
aa(lp284
I1
aI0
aI1
aI0
aI1
aI0
aI2
aI0
aI0
aI1
aI2
aa(lp285
I2
aI0
aI0
aI1
aI1
aI0
aI0
aI0
aI1
aI1
aI2
aa(lp286
I2
aI0
aI2
aI1
aI2
aI2
aI2
aI2
aI0
aI1
aI2
aa(lp287
I0
aI0
aI2
aI2
aI2
aI1
aI1
aI2
aI0
aI1
aI2
aa(lp288
I1
aI2
aI0
aI0
aI1
aI1
aI0
aI0
aI0
aI2
aI0
aa(lp289
I2
aI2
aI1
aI2
aI2
aI1
aI0
aI1
aI0
aI1
aI1
aa(lp290
I1
aI2
aI0
aI0
aI0
aI2
aI0
aI1
aI2
aI0
aI1
aa(lp291
I1
aI2
aI2
aI0
aI1
aI1
aI2
aI2
aI2
aI2
aI0
aa(lp292
I1
aI2
aI1
aI1
aI2
aI1
aI2
aI2
aI1
aI1
aI0
aa(lp293
I1
aI2
aI1
aI1
aI0
aI1
aI0
aI0
aI1
aI0
aI0
aa(lp294
I2
aI0
aI1
aI1
aI2
aI0
aI1
aI0
aI0
aI0
aI0
aa(lp295
I2
aI0
aI0
aI1
aI2
aI2
aI2
aI2
aI2
aI1
aI0
aa(lp296
I1
aI2
aI0
aI2
aI2
aI0
aI0
aI0
aI1
aI0
aI1
aa(lp297
I2
aI1
aI1
aI1
aI1
aI1
aI2
aI2
aI1
aI1
aI2
aa(lp298
I2
aI0
aI1
aI2
aI0
aI2
aI2
aI1
aI2
aI2
aI1
aa(lp299
I2
aI2
aI1
aI2
aI2
aI2
aI0
aI1
aI0
aI2
aI0
aa(lp300
I2
aI1
aI0
aI1
aI2
aI0
aI2
aI1
aI2
aI2
aI2
aa(lp301
I0
aI1
aI0
aI1
aI0
aI0
aI1
aI2
aI0
aI1
aI1
aa(lp302
I2
aI2
aI2
aI1
aI1
aI1
aI1
aI1
aI2
aI2
aI0
aa(lp303
I1
aI0
aI0
aI0
aI0
aI1
aI2
aI0
aI2
aI0
aI1
aa(lp304
I0
aI0
aI0
aI0
aI0
aI1
aI0
aI0
aI1
aI0
aI0
aa(lp305
I1
aI2
aI2
aI2
aI2
aI2
aI0
aI1
aI2
aI1
aI2
aa(lp306
I2
aI1
aI1
aI2
aI2
aI1
aI1
aI1
aI1
aI1
aI2
aa(lp307
I0
aI0
aI0
aI1
aI2
aI0
aI0
aI0
aI1
aI0
aI2
aa(lp308
I2
aI2
aI2
aI2
aI2
aI2
aI1
aI1
aI0
aI2
aI1
aa(lp309
I1
aI2
aI2
aI2
aI1
aI0
aI2
aI2
aI1
aI2
aI0
aa(lp310
I1
aI1
aI2
aI0
aI0
aI2
aI0
aI0
aI1
aI0
aI0
aa(lp311
I0
aI2
aI0
aI2
aI0
aI0
aI0
aI2
aI0
aI0
aI0
aa(lp312
I2
aI0
aI1
aI0
aI0
aI0
aI1
aI0
aI1
aI1
aI0
aa(lp313
I0
aI1
aI1
aI0
aI1
aI0
aI0
aI1
aI0
aI1
aI2
aa(lp314
I2
aI2
aI2
aI0
aI2
aI1
aI2
aI2
aI1
aI2
aI0
aa(lp315
I1
aI2
aI1
aI0
aI0
aI1
aI0
aI2
aI0
aI0
aI0
aa(lp316
I1
aI2
aI2
aI0
aI2
aI2
aI2
aI2
aI2
aI2
aI2
aa(lp317
I2
aI1
aI2
aI1
aI2
aI1
aI1
aI2
aI2
aI1
aI1
aa(lp318
I2
aI1
aI1
aI2
aI0
aI0
aI0
aI0
aI0
aI1
aI0
aa(lp319
I2
aI1
aI0
aI1
aI2
aI2
aI0
aI1
aI2
aI2
aI2
aa(lp320
I0
aI1
aI0
aI0
aI2
aI0
aI0
aI0
aI0
aI0
aI1
aa(lp321
I0
aI1
aI0
aI0
aI0
aI0
aI0
aI2
aI0
aI1
aI1
aa(lp322
I1
aI2
aI2
aI2
aI2
aI0
aI1
aI1
aI2
aI1
aI1
aa(lp323
I2
aI0
aI1
aI0
aI0
aI1
aI0
aI0
aI0
aI1
aI2
aa(lp324
I2
aI2
aI0
aI2
aI1
aI2
aI2
aI2
aI2
aI0
aI0
aa(lp325
I2
aI1
aI2
aI2
aI1
aI1
aI0
aI2
aI1
aI1
aI2
aa(lp326
I2
aI0
aI0
aI1
aI2
aI0
aI0
aI0
aI0
aI1
aI0
aa(lp327
I0
aI1
aI1
aI0
aI0
aI0
aI1
aI1
aI0
aI1
aI1
aa(lp328
I0
aI0
aI0
aI0
aI0
aI2
aI1
aI1
aI0
aI2
aI1
aa(lp329
I1
aI2
aI0
aI2
aI1
aI2
aI0
aI2
aI2
aI2
aI1
aa(lp330
I1
aI2
aI2
aI0
aI1
aI2
aI0
aI2
aI2
aI2
aI1
aa(lp331
I1
aI0
aI0
aI1
aI2
aI1
aI0
aI0
aI0
aI0
aI1
aa(lp332
I1
aI1
aI2
aI2
aI1
aI2
aI2
aI1
aI1
aI1
aI2
aa(lp333
I1
aI1
aI2
aI0
aI1
aI2
aI1
aI2
aI2
aI2
aI1
aa(lp334
I0
aI1
aI1
aI1
aI2
aI2
aI2
aI2
aI1
aI2
aI2
aa(lp335
I0
aI0
aI2
aI1
aI0
aI0
aI2
aI0
aI1
aI0
aI1
aa(lp336
I2
aI1
aI0
aI2
aI2
aI2
aI0
aI2
aI2
aI2
aI2
aa(lp337
I0
aI1
aI0
aI1
aI1
aI1
aI2
aI1
aI0
aI0
aI0
aa(lp338
I2
aI0
aI1
aI1
aI2
aI0
aI0
aI0
aI1
aI0
aI0
aa(lp339
I2
aI0
aI2
aI0
aI0
aI0
aI1
aI0
aI2
aI0
aI0
aa(lp340
I1
aI1
aI0
aI0
aI2
aI2
aI1
aI2
aI2
aI2
aI2
aa(lp341
I1
aI1
aI1
aI2
aI2
aI2
aI2
aI1
aI0
aI1
aI2
aa(lp342
I2
aI2
aI2
aI2
aI0
aI1
aI2
aI1
aI2
aI0
aI2
aa(lp343
I1
aI0
aI2
aI2
aI2
aI2
aI1
aI2
aI1
aI1
aI1
aa(lp344
I1
aI2
aI2
aI1
aI2
aI2
aI0
aI0
aI2
aI2
aI1
aa(lp345
I0
aI2
aI1
aI1
aI1
aI2
aI2
aI2
aI2
aI1
aI1
aa(lp346
I0
aI1
aI0
aI1
aI1
aI0
aI2
aI0
aI0
aI0
aI1
aa(lp347
I2
aI0
aI1
aI2
aI2
aI1
aI2
aI2
aI0
aI2
aI2
aa(lp348
I2
aI0
aI0
aI0
aI0
aI0
aI1
aI1
aI0
aI0
aI1
aa(lp349
I1
aI2
aI0
aI2
aI1
aI1
aI2
aI2
aI1
aI2
aI2
aa(lp350
I0
aI0
aI0
aI2
aI0
aI1
aI0
aI1
aI0
aI1
aI0
aa(lp351
I1
aI0
aI0
aI1
aI1
aI1
aI0
aI0
aI0
aI2
aI0
aa(lp352
I2
aI2
aI0
aI2
aI2
aI2
aI2
aI2
aI1
aI0
aI0
aa(lp353
I0
aI0
aI2
aI0
aI1
aI0
aI0
aI2
aI0
aI0
aI0
aa(lp354
I1
aI1
aI0
aI2
aI0
aI1
aI0
aI0
aI0
aI0
aI1
aa(lp355
I0
aI0
aI1
aI0
aI0
aI1
aI0
aI0
aI0
aI0
aI0
aa(lp356
I2
aI1
aI1
aI2
aI2
aI1
aI2
aI2
aI2
aI2
aI2
aa(lp357
I2
aI0
aI2
aI2
aI1
aI1
aI2
aI2
aI0
aI2
aI2
aa(lp358
I2
aI2
aI1
aI1
aI2
aI2
aI1
aI1
aI2
aI2
aI1
aa(lp359
I1
aI2
aI0
aI1
aI2
aI2
aI2
aI2
aI2
aI1
aI1
aa(lp360
I0
aI1
aI2
aI0
aI1
aI1
aI0
aI0
aI0
aI1
aI0
aa(lp361
I0
aI2
aI1
aI1
aI0
aI0
aI0
aI2
aI0
aI0
aI0
aa(lp362
I0
aI1
aI0
aI1
aI0
aI0
aI0
aI0
aI0
aI0
aI0
aa(lp363
I1
aI1
aI1
aI0
aI0
aI0
aI2
aI1
aI0
aI0
aI0
aa(lp364
I2
aI1
aI1
aI1
aI2
aI1
aI2
aI1
aI2
aI2
aI2
aa(lp365
I2
aI1
aI2
aI2
aI0
aI2
aI2
aI2
aI1
aI2
aI1
aa(lp366
I2
aI2
aI1
aI1
aI2
aI2
aI1
aI2
aI2
aI0
aI1
aa(lp367
I1
aI1
aI2
aI0
aI2
aI1
aI2
aI1
aI2
aI2
aI2
aa(lp368
I1
aI2
aI2
aI0
aI2
aI0
aI2
aI1
aI2
aI2
aI2
aa(lp369
I2
aI1
aI1
aI2
aI1
aI2
aI1
aI2
aI2
aI1
aI2
aa(lp370
I0
aI1
aI1
aI2
aI0
aI1
aI0
aI1
aI0
aI0
aI0
aa(lp371
I2
aI0
aI2
aI2
aI1
aI1
aI1
aI2
aI2
aI2
aI1
aa(lp372
I2
aI2
aI2
aI1
aI2
aI0
aI1
aI0
aI2
aI2
aI2
aa(lp373
I2
aI2
aI2
aI1
aI2
aI2
aI2
aI1
aI1
aI1
aI2
aa(lp374
I2
aI1
aI1
aI1
aI2
aI2
aI1
aI2
aI2
aI2
aI2
aa(lp375
I0
aI0
aI0
aI0
aI2
aI1
aI0
aI0
aI2
aI0
aI1
aa(lp376
I1
aI2
aI2
aI1
aI2
aI2
aI2
aI2
aI2
aI2
aI2
aa(lp377
I2
aI1
aI2
aI1
aI2
aI1
aI1
aI1
aI1
aI2
aI2
aa(lp378
I1
aI0
aI0
aI0
aI0
aI0
aI0
aI1
aI1
aI2
aI1
aa(lp379
I2
aI1
aI1
aI1
aI2
aI2
aI1
aI2
aI2
aI2
aI1
aa(lp380
I0
aI1
aI0
aI0
aI0
aI0
aI1
aI0
aI0
aI2
aI1
aa(lp381
I0
aI0
aI1
aI0
aI1
aI1
aI0
aI0
aI0
aI0
aI2
aa(lp382
I2
aI2
aI2
aI1
aI2
aI0
aI2
aI0
aI2
aI2
aI2
aa(lp383
I2
aI0
aI0
aI0
aI0
aI1
aI0
aI2
aI1
aI0
aI0
aa(lp384
I2
aI2
aI2
aI1
aI1
aI1
aI1
aI1
aI2
aI2
aI2
aa(lp385
I1
aI1
aI0
aI1
aI0
aI0
aI0
aI0
aI0
aI0
aI0
aa(lp386
I2
aI1
aI2
aI1
aI2
aI1
aI2
aI1
aI2
aI1
aI2
aa(lp387
I0
aI0
aI2
aI0
aI0
aI0
aI2
aI1
aI0
aI0
aI0
aa(lp388
I2
aI0
aI1
aI0
aI0
aI0
aI1
aI0
aI0
aI1
aI1
aa(lp389
I0
aI0
aI1
aI0
aI0
aI2
aI2
aI0
aI0
aI0
aI1
aa(lp390
I2
aI1
aI2
aI0
aI2
aI2
aI2
aI2
aI0
aI2
aI2
aa(lp391
I2
aI0
aI0
aI0
aI0
aI1
aI0
aI0
aI2
aI1
aI0
aa(lp392
I0
aI2
aI2
aI1
aI0
aI2
aI2
aI2
aI2
aI2
aI1
aa(lp393
I1
aI1
aI2
aI0
aI2
aI1
aI2
aI2
aI2
aI2
aI1
aa(lp394
I0
aI0
aI0
aI0
aI0
aI2
aI1
aI0
aI2
aI0
aI0
aa(lp395
I2
aI2
aI1
aI2
aI2
aI2
aI0
aI2
aI2
aI1
aI0
aa(lp396
I2
aI2
aI0
aI2
aI2
aI0
aI1
aI2
aI2
aI1
aI2
aa(lp397
I1
aI1
aI1
aI0
aI0
aI0
aI1
aI0
aI0
aI1
aI1
aa(lp398
I1
aI1
aI1
aI0
aI2
aI2
aI2
aI2
aI2
aI2
aI1
aa(lp399
I0
aI0
aI2
aI1
aI0
aI0
aI1
aI1
aI0
aI0
aI1
aa(lp400
I2
aI2
aI2
aI2
aI2
aI2
aI2
aI2
aI1
aI2
aI0
aa(lp401
I0
aI2
aI2
aI2
aI1
aI2
aI2
aI2
aI2
aI1
aI1
aa(lp402
I1
aI2
aI2
aI1
aI0
aI2
aI2
aI2
aI1
aI2
aI2
aa(lp403
I2
aI2
aI2
aI1
aI2
aI2
aI2
aI1
aI2
aI0
aI2
aa(lp404
I0
aI0
aI2
aI0
aI0
aI1
aI1
aI0
aI1
aI1
aI0
aa(lp405
I0
aI0
aI0
aI0
aI0
aI1
aI0
aI1
aI1
aI0
aI2
aa(lp406
I2
aI1
aI1
aI0
aI1
aI0
aI0
aI0
aI0
aI0
aI0
aa(lp407
I1
aI0
aI0
aI0
aI1
aI0
aI0
aI2
aI0
aI1
aI0
aa(lp408
I2
aI2
aI2
aI2
aI1
aI2
aI1
aI1
aI2
aI0
aI2
aa(lp409
I0
aI0
aI1
aI0
aI1
aI1
aI0
aI0
aI0
aI1
aI2
aa(lp410
I2
aI0
aI0
aI0
aI1
aI2
aI0
aI0
aI0
aI0
aI1
aa(lp411
I1
aI0
aI0
aI0
aI0
aI1
aI0
aI0
aI0
aI0
aI2
aa(lp412
I1
aI0
aI0
aI0
aI0
aI0
aI2
aI1
aI2
aI0
aI0
aa(lp413
I2
aI2
aI2
aI1
aI2
aI2
aI2
aI1
aI0
aI2
aI1
aa(lp414
I1
aI1
aI2
aI1
aI2
aI2
aI1
aI2
aI2
aI2
aI2
aa(lp415
I0
aI0
aI0
aI1
aI0
aI0
aI0
aI1
aI1
aI1
aI0
aa(lp416
I1
aI0
aI0
aI0
aI0
aI2
aI0
aI0
aI1
aI0
aI1
aa(lp417
I0
aI1
aI1
aI0
aI0
aI0
aI1
aI1
aI0
aI0
aI0
aa(lp418
I1
aI0
aI0
aI0
aI1
aI0
aI1
aI1
aI0
aI1
aI0
aa(lp419
I2
aI2
aI2
aI1
aI2
aI1
aI2
aI2
aI2
aI2
aI1
aa(lp420
I0
aI0
aI1
aI0
aI0
aI0
aI1
aI0
aI2
aI1
aI0
aa(lp421
I2
aI2
aI2
aI2
aI1
aI2
aI0
aI2
aI1
aI2
aI2
aa(lp422
I1
aI2
aI2
aI1
aI2
aI2
aI2
aI2
aI0
aI2
aI1
aa(lp423
I2
aI2
aI2
aI2
aI2
aI1
aI1
aI2
aI1
aI1
aI1
aa(lp424
I0
aI1
aI2
aI1
aI0
aI0
aI1
aI0
aI0
aI0
aI0
aa(lp425
I2
aI2
aI1
aI2
aI2
aI1
aI1
aI2
aI2
aI1
aI1
aa(lp426
I2
aI0
aI1
aI0
aI1
aI0
aI0
aI0
aI0
aI0
aI1
aa(lp427
I1
aI0
aI0
aI0
aI0
aI1
aI0
aI1
aI0
aI2
aI0
aa(lp428
I0
aI0
aI0
aI0
aI0
aI0
aI0
aI0
aI0
aI0
aI1
aa(lp429
I0
aI0
aI1
aI1
aI2
aI0
aI0
aI1
aI0
aI0
aI0
aa(lp430
I2
aI1
aI0
aI0
aI0
aI1
aI0
aI0
aI1
aI0
aI0
aa(lp431
I0
aI1
aI0
aI0
aI1
aI1
aI0
aI1
aI0
aI1
aI0
aa(lp432
I1
aI0
aI0
aI0
aI2
aI1
aI0
aI0
aI0
aI0
aI0
aa(lp433
I1
aI1
aI0
aI0
aI0
aI0
aI0
aI0
aI0
aI0
aI0
aa(lp434
I0
aI0
aI2
aI1
aI2
aI2
aI2
aI2
aI2
aI2
aI2
aa(lp435
I2
aI1
aI1
aI2
aI2
aI2
aI0
aI2
aI2
aI2
aI2
aa(lp436
I2
aI1
aI2
aI2
aI2
aI0
aI2
aI0
aI2
aI2
aI2
aa(lp437
I2
aI2
aI1
aI2
aI0
aI2
aI2
aI2
aI2
aI1
aI1
aa(lp438
I1
aI2
aI1
aI2
aI2
aI1
aI2
aI1
aI1
aI2
aI2
aa(lp439
I2
aI1
aI2
aI1
aI2
aI2
aI2
aI2
aI0
aI2
aI1
aa(lp440
I2
aI2
aI2
aI2
aI2
aI1
aI0
aI1
aI2
aI2
aI1
aa(lp441
I2
aI1
aI2
aI2
aI2
aI1
aI1
aI2
aI2
aI1
aI2
aa(lp442
I2
aI2
aI2
aI1
aI2
aI1
aI1
aI2
aI1
aI2
aI2
aa(lp443
I0
aI0
aI2
aI0
aI1
aI0
aI0
aI0
aI0
aI1
aI0
aa(lp444
I2
aI1
aI2
aI2
aI1
aI0
aI2
aI2
aI2
aI2
aI2
aa(lp445
I1
aI2
aI2
aI1
aI2
aI2
aI2
aI2
aI1
aI2
aI0
aa(lp446
I1
aI0
aI0
aI0
aI1
aI0
aI0
aI2
aI0
aI0
aI0
aa(lp447
I0
aI0
aI1
aI0
aI1
aI2
aI0
aI0
aI0
aI0
aI0
aa(lp448
I2
aI0
aI2
aI1
aI2
aI1
aI2
aI2
aI2
aI2
aI1
aa(lp449
I2
aI0
aI1
aI2
aI2
aI2
aI1
aI1
aI2
aI2
aI2
aa(lp450
I1
aI1
aI2
aI1
aI2
aI2
aI2
aI2
aI2
aI2
aI1
aa(lp451
I2
aI2
aI2
aI2
aI2
aI0
aI2
aI2
aI2
aI2
aI1
aa(lp452
I1
aI2
aI2
aI2
aI2
aI2
aI1
aI2
aI2
aI2
aI1
aa(lp453
I1
aI0
aI1
aI0
aI0
aI0
aI1
aI0
aI0
aI0
aI1
aa(lp454
I2
aI2
aI2
aI2
aI2
aI2
aI2
aI0
aI2
aI2
aI0
aa(lp455
I1
aI0
aI1
aI0
aI1
aI0
aI0
aI0
aI0
aI1
aI0
aa(lp456
I0
aI0
aI1
aI0
aI0
aI2
aI0
aI0
aI0
aI0
aI0
aa(lp457
I2
aI2
aI2
aI2
aI1
aI2
aI2
aI2
aI2
aI0
aI1
aa(lp458
I0
aI1
aI0
aI0
aI0
aI0
aI1
aI0
aI0
aI1
aI0
aa(lp459
I0
aI0
aI0
aI0
aI1
aI0
aI0
aI0
aI1
aI0
aI2
aa(lp460
I2
aI2
aI2
aI2
aI2
aI2
aI2
aI2
aI2
aI0
aI2
aa(lp461
I1
aI1
aI0
aI0
aI0
aI0
aI0
aI1
aI0
aI0
aI1
aa(lp462
I1
aI2
aI1
aI2
aI1
aI1
aI2
aI2
aI2
aI2
aI2
aa(lp463
I0
aI0
aI0
aI2
aI0
aI0
aI0
aI0
aI1
aI1
aI0
aa(lp464
I0
aI1
aI1
aI0
aI0
aI0
aI0
aI0
aI1
aI0
aI0
aa(lp465
I2
aI2
aI1
aI2
aI2
aI1
aI2
aI2
aI2
aI0
aI2
aa(lp466
I0
aI0
aI1
aI0
aI2
aI0
aI0
aI0
aI0
aI0
aI0
aa(lp467
I0
aI1
aI0
aI0
aI0
aI1
aI0
aI0
aI0
aI2
aI0
aa(lp468
I2
aI0
aI0
aI0
aI0
aI1
aI0
aI0
aI0
aI1
aI0
aa(lp469
I2
aI2
aI2
aI1
aI1
aI2
aI2
aI2
aI2
aI2
aI2
aa(lp470
I2
aI2
aI2
aI0
aI1
aI2
aI2
aI2
aI2
aI2
aI2
aa(lp471
I2
aI2
aI1
aI1
aI2
aI2
aI2
aI1
aI1
aI2
aI2
aa(lp472
I1
aI1
aI0
aI1
aI0
aI0
aI0
aI0
aI1
aI0
aI0
aa(lp473
I2
aI1
aI2
aI1
aI2
aI2
aI2
aI2
aI1
aI2
aI1
aa(lp474
I2
aI2
aI2
aI2
aI2
aI1
aI2
aI1
aI0
aI2
aI2
aa(lp475
I1
aI0
aI0
aI2
aI0
aI0
aI1
aI0
aI0
aI0
aI0
aa(lp476
I0
aI0
aI0
aI2
aI0
aI0
aI0
aI0
aI0
aI0
aI1
aa(lp477
I1
aI2
aI2
aI2
aI2
aI1
aI2
aI1
aI2
aI2
aI2
aa(lp478
I1
aI2
aI1
aI2
aI2
aI2
aI2
aI1
aI1
aI2
aI2
aa(lp479
I0
aI0
aI0
aI2
aI1
aI1
aI0
aI0
aI0
aI0
aI0
aa(lp480
I1
aI2
aI2
aI2
aI1
aI2
aI1
aI2
aI1
aI2
aI2
aa(lp481
I1
aI0
aI1
aI1
aI0
aI0
aI0
aI0
aI0
aI1
aI0
aa(lp482
I2
aI2
aI2
aI2
aI1
aI2
aI2
aI1
aI0
aI2
aI2
aa(lp483
I1
aI0
aI0
aI0
aI0
aI0
aI0
aI1
aI0
aI0
aI0
aa(lp484
I0
aI0
aI0
aI0
aI0
aI1
aI0
aI0
aI1
aI0
aI2
aa(lp485
I1
aI1
aI2
aI2
aI2
aI0
aI2
aI2
aI2
aI2
aI2
aa(lp486
I1
aI2
aI2
aI1
aI1
aI2
aI1
aI2
aI2
aI2
aI2
aa(lp487
I2
aI2
aI2
aI2
aI2
aI1
aI1
aI1
aI2
aI2
aI1
aa(lp488
I1
aI0
aI0
aI2
aI0
aI0
aI0
aI0
aI0
aI1
aI0
aa(lp489
I0
aI2
aI0
aI0
aI0
aI0
aI0
aI0
aI0
aI1
aI1
aa(lp490
I1
aI1
aI1
aI2
aI2
aI1
aI2
aI2
aI2
aI2
aI2
aa(lp491
I2
aI1
aI2
aI1
aI2
aI1
aI2
aI2
aI2
aI2
aI2
aa(lp492
I2
aI1
aI2
aI2
aI2
aI1
aI2
aI1
aI1
aI2
aI2
aa(lp493
I1
aI1
aI0
aI0
aI1
aI0
aI0
aI0
aI0
aI0
aI0
aa(lp494
I0
aI1
aI1
aI0
aI0
aI0
aI1
aI0
aI0
aI0
aI0
aa(lp495
I1
aI2
aI2
aI2
aI1
aI1
aI1
aI2
aI2
aI2
aI2
aa(lp496
I2
aI2
aI1
aI2
aI2
aI2
aI2
aI2
aI2
aI2
aI0
aa(lp497
I2
aI1
aI1
aI0
aI0
aI0
aI0
aI0
aI0
aI0
aI0
aa(lp498
I0
aI0
aI0
aI0
aI2
aI0
aI0
aI0
aI0
aI1
aI1
aa(lp499
I0
aI0
aI0
aI0
aI2
aI0
aI2
aI0
aI0
aI0
aI0
aa(lp500
I1
aI0
aI0
aI1
aI0
aI0
aI0
aI1
aI0
aI0
aI1
aa(lp501
I0
aI0
aI0
aI1
aI0
aI1
aI0
aI2
aI0
aI0
aI0
aa.