(lp1
(lp2
I0
aI0
aI0
aI0
aI0
aI0
aI0
aI0
aI0
aI0
aa(lp3
I1
aI1
aI1
aI1
aI1
aI1
aI1
aI1
aI1
aI1
aa(lp4
I2
aI2
aI2
aI2
aI2
aI2
aI2
aI2
aI2
aI2
aa(lp5
I2
aI0
aI1
aI2
aI2
aI2
aI1
aI1
aI0
aI1
aa(lp6
I0
aI1
aI1
aI0
aI2
aI0
aI1
aI1
aI2
aI1
aa(lp7
I2
aI0
aI2
aI1
aI1
aI1
aI1
aI1
aI1
aI0
aa(lp8
I2
aI0
aI2
aI1
aI1
aI2
aI2
aI0
aI0
aI0
aa(lp9
I1
aI0
aI1
aI0
aI1
aI2
aI1
aI1
aI2
aI2
aa(lp10
I1
aI1
aI2
aI0
aI2
aI0
aI2
aI0
aI0
aI0
aa(lp11
I1
aI2
aI0
aI0
aI0
aI2
aI1
aI2
aI1
aI1
aa(lp12
I0
aI0
aI0
aI2
aI1
aI2
aI0
aI0
aI2
aI0
aa(lp13
I2
aI2
aI1
aI1
aI1
aI2
aI0
aI1
aI1
aI2
aa(lp14
I1
aI0
aI0
aI0
aI0
aI1
aI1
aI1
aI1
aI2
aa(lp15
I0
aI0
aI2
aI0
aI2
aI0
aI2
aI0
aI2
aI2
aa(lp16
I1
aI1
aI2
aI2
aI1
aI2
aI2
aI1
aI2
aI1
aa(lp17
I1
aI0
aI1
aI2
aI2
aI2
aI1
aI0
aI2
aI0
aa(lp18
I0
aI2
aI1
aI2
aI2
aI2
aI0
aI2
aI0
aI0
aa(lp19
I0
aI1
aI1
aI0
aI0
aI0
aI0
aI0
aI0
aI1
aa(lp20
I1
aI1
aI2
aI0
aI2
aI0
aI2
aI2
aI2
aI1
aa(lp21
I2
aI0
aI0
aI0
aI0
aI2
aI1
aI0
aI2
aI2
aa(lp22
I1
aI2
aI1
aI1
aI1
aI2
aI2
aI1
aI1
aI0
aa(lp23
I0
aI1
aI1
aI0
aI1
aI1
aI0
aI0
aI2
aI1
aa(lp24
I2
aI0
aI2
aI0
aI0
aI0
aI1
aI2
aI0
aI1
aa(lp25
I0
aI0
aI1
aI1
aI1
aI1
aI2
aI1
aI0
aI0
aa(lp26
I2
aI2
aI2
aI0
aI1
aI1
aI1
aI2
aI0
aI0
aa(lp27
I1
aI0
aI2
aI2
aI2
aI0
aI0
aI1
aI2
aI2
aa(lp28
I2
aI0
aI1
aI1
aI1
aI0
aI1
aI1
aI1
aI2
aa(lp29
I0
aI0
aI2
aI2
aI1
aI2
aI2
aI0
aI2
aI1
aa(lp30
I2
aI0
aI1
aI0
aI2
aI0
aI0
aI2
aI1
aI2
aa(lp31
I0
aI2
aI0
aI2
aI0
aI2
aI2
aI1
aI0
aI1
aa(lp32
I2
aI0
aI2
aI1
aI2
aI2
aI1
aI0
aI0
aI2
aa(lp33
I2
aI1
aI0
aI1
aI2
aI2
aI0
aI0
aI1
aI0
aa(lp34
I0
aI2
aI0
aI0
aI1
aI0
aI1
aI2
aI0
aI0
aa(lp35
I1
aI0
aI2
aI2
aI0
aI0
aI2
aI1
aI2
aI1
aa(lp36
I2
aI0
aI1
aI0
aI2
aI0
aI2
aI0
aI1
aI0
aa(lp37
I1
aI2
aI0
aI1
aI1
aI2
aI0
aI1
aI0
aI2
aa(lp38
I2
aI0
aI2
aI2
aI0
aI0
aI2
aI0
aI1
aI0
aa(lp39
I0
aI2
aI0
aI2
aI0
aI1
aI2
aI0
aI2
aI2
aa(lp40
I0
aI0
aI0
aI0
aI2
aI0
aI0
aI0
aI1
aI2
aa(lp41
I2
aI0
aI1
aI1
aI1
aI0
aI1
aI0
aI0
aI0
aa(lp42
I2
aI0
aI0
aI0
aI1
aI0
aI2
aI2
aI2
aI2
aa(lp43
I0
aI2
aI0
aI1
aI2
aI0
aI1
aI1
aI0
aI1
aa(lp44
I0
aI2
aI2
aI1
aI0
aI0
aI1
aI2
aI2
aI2
aa(lp45
I2
aI1
aI1
aI1
aI0
aI0
aI1
aI1
aI0
aI1
aa(lp46
I0
aI2
aI0
aI1
aI0
aI1
aI0
aI1
aI0
aI1
aa(lp47
I0
aI1
aI1
aI0
aI0
aI0
aI2
aI0
aI0
aI0
aa(lp48
I1
aI0
aI2
aI1
aI2
aI0
aI1
aI2
aI1
aI2
aa(lp49
I2
aI2
aI1
aI1
aI0
aI2
aI0
aI2
aI0
aI2
aa(lp50
I1
aI1
aI1
aI0
aI1
aI1
aI2
aI1
aI0
aI1
aa(lp51
I1
aI1
aI2
aI2
aI1
aI1
aI1
aI1
aI2
aI0
aa(lp52
I1
aI2
aI0
aI0
aI2
aI2
aI2
aI0
aI1
aI1
aa(lp53
I0
aI0
aI1
aI2
aI2
aI2
aI0
aI1
aI1
aI2
aa(lp54
I0
aI1
aI2
aI2
aI0
aI1
aI0
aI0
aI2
aI1
aa(lp55
I0
aI2
aI2
aI1
aI1
aI0
aI2
aI2
aI2
aI1
aa(lp56
I2
aI0
aI1
aI2
aI2
aI0
aI2
aI1
aI1
aI1
aa(lp57
I0
aI0
aI0
aI2
aI0
aI0
aI0
aI1
aI1
aI2
aa(lp58
I0
aI2
aI2
aI1
aI0
aI2
aI2
aI0
aI0
aI2
aa(lp59
I1
aI0
aI0
aI1
aI1
aI1
aI1
aI0
aI0
aI2
aa(lp60
I0
aI0
aI0
aI2
aI2
aI1
aI1
aI0
aI1
aI0
aa(lp61
I1
aI0
aI0
aI2
aI1
aI1
aI0
aI1
aI2
aI1
aa(lp62
I0
aI2
aI1
aI2
aI2
aI2
aI1
aI2
aI1
aI1
aa(lp63
I0
aI1
aI1
aI1
aI0
aI0
aI1
aI0
aI2
aI0
aa(lp64
I1
aI2
aI0
aI0
aI2
aI2
aI0
aI0
aI1
aI1
aa(lp65
I2
aI0
aI0
aI0
aI0
aI1
aI2
aI1
aI1
aI1
aa(lp66
I0
aI1
aI0
aI1
aI2
aI0
aI0
aI1
aI1
aI1
aa(lp67
I0
aI2
aI2
aI2
aI0
aI2
aI1
aI2
aI2
aI0
aa(lp68
I1
aI1
aI0
aI1
aI1
aI1
aI1
aI0
aI1
aI0
aa(lp69
I0
aI1
aI1
aI0
aI2
aI1
aI0
aI2
aI2
aI2
aa(lp70
I2
aI2
aI1
aI2
aI1
aI2
aI1
aI2
aI1
aI1
aa(lp71
I0
aI0
aI1
aI2
aI0
aI2
aI0
aI1
aI0
aI2
aa(lp72
I2
aI0
aI0
aI1
aI1
aI0
aI2
aI2
aI0
aI0
aa(lp73
I1
aI1
aI1
aI2
aI0
aI0
aI0
aI1
aI2
aI0
aa(lp74
I1
aI2
aI0
aI0
aI0
aI2
aI0
aI1
aI1
aI2
aa(lp75
I0
aI2
aI2
aI2
aI1
aI1
aI2
aI2
aI2
aI2
aa(lp76
I2
aI0
aI2
aI2
aI1
aI1
aI1
aI1
aI2
aI1
aa(lp77
I2
aI1
aI2
aI1
aI2
aI2
aI2
aI1
aI2
aI1
aa(lp78
I0
aI1
aI1
aI1
aI1
aI1
aI0
aI0
aI1
aI2
aa(lp79
I1
aI0
aI1
aI1
aI1
aI2
aI0
aI0
aI2
aI1
aa(lp80
I0
aI0
aI1
aI1
aI2
aI0
aI0
aI1
aI0
aI1
aa(lp81
I0
aI1
aI2
aI2
aI0
aI2
aI1
aI0
aI0
aI1
aa(lp82
I1
aI0
aI0
aI0
aI0
aI0
aI0
aI2
aI0
aI2
aa(lp83
I1
aI0
aI2
aI1
aI0
aI2
aI2
aI2
aI0
aI0
aa(lp84
I2
aI1
aI0
aI2
aI2
aI1
aI0
aI2
aI2
aI1
aa(lp85
I1
aI1
aI0
aI2
aI0
aI2
aI0
aI1
aI1
aI1
aa(lp86
I2
aI2
aI0
aI2
aI0
aI1
aI2
aI1
aI1
aI0
aa(lp87
I1
aI2
aI0
aI2
aI1
aI2
aI1
aI0
aI2
aI2
aa(lp88
I1
aI1
aI1
aI2
aI2
aI0
aI2
aI2
aI2
aI0
aa(lp89
I2
aI0
aI2
aI2
aI0
aI1
aI2
aI1
aI2
aI2
aa(lp90
I2
aI0
aI2
aI1
aI1
aI1
aI1
aI0
aI2
aI2
aa(lp91
I1
aI2
aI0
aI2
aI1
aI0
aI1
aI0
aI0
aI2
aa(lp92
I0
aI1
aI1
aI1
aI1
aI2
aI2
aI0
aI1
aI2
aa(lp93
I1
aI0
aI1
aI0
aI0
aI1
aI1
aI2
aI0
aI1
aa(lp94
I1
aI2
aI0
aI1
aI0
aI1
aI2
aI1
aI0
aI1
aa(lp95
I2
aI2
aI1
aI1
aI2
aI1
aI1
aI0
aI0
aI2
aa(lp96
I0
aI2
aI0
aI0
aI0
aI1
aI2
aI1
aI0
aI0
aa(lp97
I2
aI0
aI0
aI2
aI1
aI1
aI0
aI2
aI1
aI0
aa(lp98
I0
aI1
aI2
aI1
aI1
aI2
aI1
aI0
aI1
aI0
aa(lp99
I1
aI1
aI1
aI2
aI1
aI0
aI1
aI2
aI2
aI1
aa(lp100
I2
aI0
aI1
aI0
aI2
aI0
aI1
aI1
aI2
aI1
aa(lp101
I2
aI2
aI1
aI0
aI0
aI0
aI1
aI1
aI2
aI1
aa(lp102
I0
aI0
aI1
aI0
aI2
aI0
aI1
aI2
aI0
aI0
aa(lp103
I0
aI1
aI2
aI0
aI2
aI1
aI2
aI1
aI0
aI2
aa(lp104
I0
aI1
aI0
aI2
aI2
aI0
aI2
aI1
aI1
aI2
aa(lp105
I0
aI2
aI0
aI0
aI1
aI2
aI1
aI2
aI0
aI0
aa(lp106
I0
aI1
aI0
aI0
aI1
aI0
aI1
aI0
aI2
aI1
aa(lp107
I1
aI2
aI1
aI0
aI1
aI0
aI2
aI0
aI0
aI0
aa(lp108
I1
aI1
aI0
aI0
aI1
aI2
aI0
aI2
aI1
aI1
aa(lp109
I1
aI1
aI1
aI0
aI2
aI0
aI2
aI1
aI0
aI2
aa(lp110
I1
aI1
aI2
aI2
aI2
aI1
aI2
aI1
aI0
aI2
aa(lp111
I2
aI1
aI0
aI1
aI2
aI1
aI1
aI1
aI2
aI1
aa(lp112
I1
aI0
aI2
aI0
aI0
aI1
aI2
aI2
aI0
aI0
aa(lp113
I2
aI0
aI2
aI1
aI1
aI1
aI0
aI0
aI1
aI1
aa(lp114
I1
aI1
aI0
aI2
aI0
aI2
aI2
aI1
aI2
aI1
aa(lp115
I1
aI1
aI0
aI2
aI2
aI0
aI0
aI0
aI1
aI2
aa(lp116
I2
aI2
aI2
aI1
aI2
aI0
aI0
aI0
aI0
aI2
aa(lp117
I2
aI1
aI1
aI0
aI0
aI2
aI2
aI2
aI1
aI2
aa(lp118
I1
aI2
aI2
aI1
aI1
aI0
aI0
aI2
aI1
aI2
aa(lp119
I0
aI0
aI2
aI0
aI0
aI2
aI0
aI1
aI2
aI2
aa(lp120
I2
aI1
aI2
aI1
aI1
aI2
aI0
aI0
aI0
aI0
aa(lp121
I0
aI0
aI1
aI2
aI2
aI0
aI2
aI2
aI1
aI2
aa(lp122
I2
aI0
aI0
aI0
aI1
aI2
aI2
aI2
aI1
aI1
aa(lp123
I0
aI1
aI1
aI0
aI0
aI2
aI2
aI0
aI2
aI0
aa(lp124
I0
aI0
aI0
aI1
aI1
aI2
aI0
aI2
aI2
aI1
aa(lp125
I1
aI2
aI1
aI0
aI2
aI2
aI2
aI1
aI0
aI0
aa(lp126
I0
aI1
aI2
aI0
aI1
aI0
aI2
aI1
aI1
aI1
aa(lp127
I2
aI0
aI0
aI2
aI1
aI1
aI1
aI2
aI0
aI1
aa(lp128
I0
aI0
aI2
aI0
aI2
aI1
aI2
aI0
aI2
aI0
aa(lp129
I0
aI0
aI2
aI0
aI2
aI2
aI1
aI1
aI2
aI2
aa(lp130
I2
aI0
aI1
aI2
aI1
aI2
aI2
aI0
aI1
aI2
aa(lp131
I2
aI2
aI2
aI0
aI2
aI2
aI1
aI0
aI1
aI2
aa(lp132
I0
aI2
aI0
aI2
aI1
aI1
aI0
aI0
aI0
aI0
aa(lp133
I2
aI2
aI1
aI2
aI1
aI0
aI0
aI1
aI2
aI0
aa(lp134
I1
aI1
aI0
aI1
aI1
aI0
aI0
aI0
aI2
aI2
aa(lp135
I2
aI0
aI1
aI0
aI2
aI2
aI2
aI2
aI2
aI0
aa(lp136
I0
aI1
aI0
aI2
aI2
aI2
aI0
aI2
aI1
aI1
aa(lp137
I1
aI2
aI0
aI2
aI0
aI0
aI0
aI1
aI0
aI0
aa(lp138
I0
aI2
aI0
aI2
aI1
aI0
aI1
aI1
aI0
aI1
aa(lp139
I2
aI2
aI2
aI1
aI0
aI1
aI2
aI1
aI0
aI0
aa(lp140
I2
aI0
aI0
aI1
aI0
aI0
aI2
aI0
aI1
aI0
aa(lp141
I1
aI1
aI0
aI2
aI0
aI1
aI1
aI2
aI2
aI0
aa(lp142
I0
aI1
aI1
aI0
aI2
aI2
aI0
aI1
aI0
aI2
aa(lp143
I1
aI0
aI0
aI0
aI1
aI0
aI2
aI1
aI1
aI0
aa(lp144
I0
aI1
aI0
aI1
aI0
aI1
aI1
aI1
aI1
aI0
aa(lp145
I1
aI1
aI2
aI2
aI0
aI2
aI1
aI0
aI2
aI0
aa(lp146
I2
aI0
aI2
aI1
aI2
aI1
aI0
aI0
aI2
aI2
aa(lp147
I0
aI2
aI0
aI0
aI2
aI2
aI1
aI2
aI0
aI1
aa(lp148
I2
aI2
aI1
aI2
aI0
aI2
aI1
aI2
aI2
aI0
aa(lp149
I0
aI0
aI1
aI0
aI0
aI0
aI1
aI1
aI2
aI1
aa(lp150
I2
aI2
aI0
aI0
aI0
aI2
aI2
aI2
aI1
aI1
aa(lp151
I0
aI1
aI1
aI1
aI2
aI1
aI2
aI0
aI0
aI0
aa(lp152
I1
aI0
aI2
aI0
aI2
aI1
aI2
aI1
aI0
aI0
aa(lp153
I0
aI2
aI0
aI1
aI1
aI2
aI1
aI0
aI0
aI1
aa(lp154
I2
aI1
aI0
aI1
aI1
aI1
aI2
aI1
aI0
aI0
aa(lp155
I2
aI0
aI1
aI0
aI1
aI0
aI0
aI0
aI0
aI1
aa(lp156
I1
aI1
aI1
aI1
aI2
aI2
aI0
aI0
aI2
aI2
aa(lp157
I1
aI0
aI2
aI2
aI0
aI2
aI2
aI1
aI1
aI1
aa(lp158
I1
aI2
aI1
aI1
aI0
aI2
aI0
aI1
aI1
aI1
aa(lp159
I0
aI1
aI1
aI2
aI2
aI2
aI1
aI0
aI1
aI0
aa(lp160
I2
aI0
aI1
aI0
aI2
aI2
aI0
aI2
aI2
aI0
aa(lp161
I1
aI2
aI1
aI0
aI2
aI2
aI1
aI2
aI2
aI2
aa(lp162
I1
aI1
aI0
aI1
aI0
aI0
aI0
aI0
aI0
aI0
aa(lp163
I1
aI0
aI1
aI1
aI2
aI1
aI2
aI2
aI2
aI0
aa(lp164
I1
aI1
aI1
aI1
aI1
aI1
aI1
aI1
aI2
aI0
aa(lp165
I1
aI0
aI0
aI0
aI0
aI2
aI2
aI2
aI2
aI0
aa(lp166
I1
aI1
aI0
aI0
aI0
aI2
aI2
aI0
aI2
aI2
aa(lp167
I1
aI1
aI0
aI1
aI0
aI1
aI2
aI0
aI0
aI1
aa(lp168
I1
aI2
aI0
aI2
aI1
aI1
aI1
aI0
aI2
aI1
aa(lp169
I2
aI2
aI0
aI0
aI2
aI1
aI2
aI0
aI2
aI1
aa(lp170
I2
aI1
aI2
aI2
aI0
aI0
aI0
aI0
aI0
aI1
aa(lp171
I1
aI1
aI2
aI1
aI0
aI0
aI2
aI1
aI0
aI1
aa(lp172
I0
aI0
aI0
aI0
aI0
aI0
aI0
aI1
aI2
aI1
aa(lp173
I2
aI1
aI1
aI2
aI0
aI2
aI1
aI0
aI0
aI2
aa(lp174
I1
aI0
aI2
aI2
aI0
aI1
aI2
aI0
aI0
aI0
aa(lp175
I1
aI1
aI1
aI0
aI1
aI1
aI1
aI1
aI0
aI0
aa(lp176
I1
aI1
aI2
aI0
aI0
aI1
aI0
aI2
aI2
aI2
aa(lp177
I0
aI0
aI1
aI0
aI2
aI0
aI0
aI1
aI2
aI2
aa(lp178
I1
aI1
aI2
aI0
aI0
aI0
aI0
aI2
aI0
aI2
aa(lp179
I0
aI1
aI2
aI2
aI1
aI1
aI1
aI1
aI1
aI1
aa(lp180
I2
aI0
aI1
aI2
aI1
aI0
aI2
aI2
aI1
aI0
aa(lp181
I1
aI1
aI2
aI0
aI1
aI2
aI2
aI2
aI2
aI1
aa(lp182
I1
aI0
aI1
aI1
aI1
aI0
aI2
aI1
aI2
aI0
aa(lp183
I1
aI1
aI0
aI2
aI0
aI2
aI1
aI1
aI1
aI1
aa(lp184
I2
aI1
aI0
aI0
aI0
aI1
aI2
aI0
aI0
aI1
aa(lp185
I2
aI2
aI2
aI2
aI0
aI0
aI1
aI0
aI2
aI2
aa(lp186
I2
aI1
aI2
aI1
aI1
aI0
aI0
aI0
aI0
aI0
aa(lp187
I0
aI2
aI1
aI0
aI0
aI0
aI2
aI0
aI1
aI0
aa(lp188
I2
aI0
aI2
aI1
aI1
aI0
aI0
aI0
aI1
aI0
aa(lp189
I2
aI0
aI2
aI0
aI0
aI1
aI2
aI0
aI2
aI0
aa(lp190
I1
aI1
aI1
aI0
aI0
aI1
aI2
aI1
aI0
aI1
aa(lp191
I1
aI0
aI1
aI2
aI2
aI2
aI0
aI1
aI2
aI1
aa(lp192
I0
aI1
aI1
aI1
aI2
aI1
aI1
aI2
aI1
aI2
aa(lp193
I0
aI2
aI2
aI2
aI0
aI2
aI0
aI1
aI1
aI2
aa(lp194
I1
aI0
aI1
aI1
aI1
aI1
aI1
aI2
aI1
aI2
aa(lp195
I0
aI1
aI0
aI1
aI0
aI2
aI2
aI1
aI2
aI2
aa(lp196
I0
aI0
aI2
aI0
aI2
aI2
aI0
aI1
aI1
aI2
aa(lp197
I2
aI1
aI0
aI1
aI1
aI1
aI2
aI1
aI0
aI2
aa(lp198
I2
aI0
aI1
aI0
aI2
aI2
aI2
aI1
aI1
aI2
aa(lp199
I0
aI2
aI2
aI0
aI0
aI1
aI1
aI2
aI2
aI1
aa(lp200
I2
aI1
aI0
aI1
aI2
aI2
aI2
aI2
aI2
aI1
aa(lp201
I0
aI0
aI0
aI0
aI1
aI1
aI1
aI1
aI1
aI0
aa(lp202
I0
aI2
aI1
aI1
aI0
aI0
aI1
aI2
aI1
aI1
aa(lp203
I0
aI0
aI2
aI0
aI2
aI1
aI1
aI0
aI2
aI1
aa(lp204
I2
aI2
aI1
aI1
aI1
aI0
aI0
aI2
aI1
aI0
aa(lp205
I0
aI2
aI2
aI0
aI0
aI1
aI1
aI2
aI2
aI2
aa(lp206
I2
aI1
aI0
aI1
aI2
aI0
aI0
aI0
aI2
aI2
aa(lp207
I0
aI1
aI0
aI1
aI1
aI2
aI1
aI2
aI0
aI1
aa(lp208
I2
aI0
aI2
aI0
aI2
aI1
aI1
aI1
aI1
aI2
aa(lp209
I1
aI0
aI1
aI1
aI1
aI1
aI0
aI1
aI2
aI2
aa(lp210
I1
aI1
aI2
aI0
aI2
aI2
aI1
aI2
aI2
aI0
aa(lp211
I2
aI1
aI0
aI0
aI2
aI1
aI1
aI1
aI0
aI0
aa(lp212
I1
aI0
aI1
aI0
aI1
aI0
aI1
aI1
aI2
aI0
aa(lp213
I2
aI2
aI1
aI2
aI1
aI2
aI0
aI1
aI0
aI0
aa(lp214
I1
aI0
aI1
aI2
aI0
aI2
aI0
aI1
aI0
aI0
aa(lp215
I2
aI0
aI1
aI1
aI2
aI2
aI2
aI0
aI1
aI0
aa(lp216
I0
aI0
aI1
aI1
aI0
aI0
aI0
aI0
aI2
aI2
aa(lp217
I0
aI1
aI2
aI2
aI1
aI0
aI1
aI1
aI0
aI2
aa(lp218
I2
aI2
aI0
aI1
aI2
aI0
aI1
aI2
aI2
aI1
aa(lp219
I1
aI1
aI0
aI1
aI2
aI0
aI0
aI0
aI2
aI1
aa(lp220
I1
aI1
aI2
aI0
aI2
aI2
aI1
aI1
aI1
aI2
aa(lp221
I1
aI1
aI2
aI1
aI1
aI2
aI1
aI2
aI2
aI2
aa(lp222
I1
aI0
aI0
aI0
aI0
aI1
aI2
aI1
aI1
aI1
aa(lp223
I0
aI2
aI1
aI2
aI2
aI1
aI1
aI1
aI1
aI2
aa(lp224
I2
aI0
aI2
aI0
aI2
aI0
aI0
aI0
aI2
aI2
aa(lp225
I1
aI1
aI0
aI1
aI1
aI1
aI2
aI1
aI1
aI0
aa(lp226
I2
aI2
aI0
aI1
aI0
aI0
aI0
aI2
aI1
aI2
aa(lp227
I2
aI2
aI2
aI1
aI2
aI0
aI0
aI1
aI2
aI0
aa(lp228
I0
aI0
aI1
aI2
aI1
aI1
aI0
aI1
aI1
aI0
aa(lp229
I0
aI1
aI1
aI1
aI1
aI0
aI1
aI1
aI0
aI1
aa(lp230
I0
aI2
aI0
aI0
aI2
aI0
aI1
aI1
aI0
aI1
aa(lp231
I0
aI2
aI1
aI1
aI1
aI1
aI1
aI0
aI1
aI0
aa(lp232
I0
aI0
aI1
aI1
aI2
aI0
aI1
aI0
aI0
aI1
aa(lp233
I0
aI0
aI1
aI0
aI1
aI2
aI1
aI2
aI2
aI1
aa(lp234
I1
aI1
aI1
aI0
aI1
aI1
aI0
aI1
aI1
aI1
aa(lp235
I1
aI0
aI0
aI0
aI0
aI0
aI0
aI2
aI1
aI1
aa(lp236
I1
aI2
aI2
aI1
aI0
aI2
aI1
aI0
aI2
aI2
aa(lp237
I0
aI0
aI0
aI0
aI1
aI2
aI2
aI1
aI0
aI0
aa(lp238
I1
aI0
aI1
aI0
aI0
aI2
aI1
aI0
aI1
aI0
aa(lp239
I1
aI0
aI2
aI0
aI0
aI0
aI0
aI1
aI1
aI0
aa(lp240
I2
aI0
aI1
aI2
aI1
aI0
aI1
aI0
aI2
aI1
aa(lp241
I1
aI2
aI1
aI0
aI1
aI2
aI0
aI1
aI2
aI0
aa(lp242
I1
aI0
aI1
aI0
aI0
aI2
aI2
aI2
aI1
aI1
aa(lp243
I0
aI1
aI2
aI1
aI1
aI1
aI0
aI1
aI1
aI2
aa(lp244
I0
aI0
aI0
aI2
aI0
aI1
aI1
aI0
aI1
aI2
aa(lp245
I1
aI1
aI1
aI1
aI2
aI2
aI1
aI1
aI2
aI1
aa(lp246
I0
aI2
aI0
aI0
aI2
aI2
aI1
aI0
aI1
aI0
aa(lp247
I1
aI2
aI2
aI2
aI2
aI1
aI0
aI0
aI1
aI0
aa(lp248
I1
aI0
aI2
aI0
aI2
aI1
aI2
aI2
aI1
aI2
aa(lp249
I2
aI2
aI1
aI1
aI1
aI0
aI0
aI1
aI0
aI2
aa(lp250
I2
aI2
aI0
aI2
aI2
aI2
aI0
aI1
aI2
aI2
aa(lp251
I2
aI1
aI2
aI2
aI2
aI0
aI1
aI1
aI0
aI1
aa(lp252
I2
aI0
aI0
aI0
aI2
aI1
aI0
aI0
aI1
aI2
aa(lp253
I1
aI0
aI1
aI1
aI2
aI0
aI0
aI1
aI2
aI2
aa(lp254
I2
aI2
aI1
aI2
aI1
aI1
aI0
aI2
aI2
aI0
aa(lp255
I1
aI2
aI1
aI0
aI1
aI0
aI1
aI1
aI0
aI0
aa(lp256
I1
aI1
aI0
aI1
aI1
aI2
aI1
aI2
aI2
aI1
aa(lp257
I1
aI1
aI1
aI1
aI1
aI0
aI0
aI1
aI0
aI1
aa(lp258
I0
aI0
aI2
aI1
aI1
aI1
aI2
aI1
aI0
aI0
aa(lp259
I2
aI1
aI0
aI2
aI1
aI2
aI0
aI2
aI0
aI2
aa(lp260
I0
aI1
aI1
aI2
aI1
aI2
aI2
aI2
aI2
aI0
aa(lp261
I2
aI0
aI0
aI1
aI0
aI2
aI0
aI0
aI0
aI0
aa(lp262
I1
aI1
aI1
aI2
aI2
aI1
aI1
aI2
aI1
aI1
aa(lp263
I0
aI2
aI0
aI2
aI2
aI2
aI2
aI1
aI2
aI1
aa(lp264
I0
aI2
aI2
aI1
aI1
aI1
aI1
aI2
aI0
aI2
aa(lp265
I2
aI2
aI0
aI2
aI2
aI2
aI0
aI1
aI2
aI0
aa(lp266
I2
aI2
aI2
aI1
aI2
aI2
aI2
aI0
aI1
aI1
aa(lp267
I0
aI0
aI1
aI1
aI1
aI1
aI0
aI0
aI0
aI1
aa(lp268
I2
aI1
aI2
aI1
aI2
aI2
aI0
aI2
aI0
aI1
aa(lp269
I1
aI1
aI0
aI0
aI1
aI2
aI1
aI1
aI0
aI0
aa(lp270
I1
aI1
aI0
aI0
aI0
aI1
aI0
aI1
aI0
aI0
aa(lp271
I1
aI0
aI1
aI1
aI1
aI1
aI0
aI2
aI0
aI0
aa(lp272
I2
aI0
aI1
aI0
aI1
aI1
aI0
aI1
aI0
aI0
aa(lp273
I0
aI1
aI1
aI0
aI2
aI0
aI0
aI0
aI0
aI2
aa(lp274
I1
aI2
aI1
aI0
aI2
aI2
aI0
aI1
aI1
aI2
aa(lp275
I2
aI2
aI1
aI1
aI1
aI2
aI2
aI2
aI0
aI0
aa(lp276
I1
aI0
aI2
aI2
aI1
aI2
aI2
aI1
aI2
aI1
aa(lp277
I0
aI1
aI2
aI0
aI0
aI1
aI2
aI0
aI1
aI1
aa(lp278
I0
aI1
aI0
aI1
aI1
aI0
aI1
aI1
aI1
aI2
aa(lp279
I1
aI1
aI0
aI2
aI1
aI0
aI0
aI0
aI1
aI0
aa(lp280
I2
aI2
aI0
aI1
aI2
aI2
aI2
aI1
aI1
aI0
aa(lp281
I1
aI0
aI0
aI0
aI0
aI1
aI1
aI0
aI1
aI1
aa(lp282
I0
aI0
aI0
aI0
aI1
aI1
aI0
aI1
aI0
aI1
aa(lp283
I1
aI0
aI0
aI0
aI1
aI0
aI1
aI0
aI1
aI0
aa(lp284
I0
aI0
aI2
aI2
aI0
aI1
aI0
aI0
aI0
aI2
aa(lp285
I2
aI2
aI0
aI0
aI0
aI1
aI0
aI1
aI1
aI1
aa(lp286
I2
aI2
aI1
aI1
aI1
aI2
aI1
aI1
aI1
aI1
aa(lp287
I2
aI0
aI2
aI1
aI0
aI1
aI2
aI1
aI2
aI2
aa(lp288
I2
aI0
aI2
aI1
aI2
aI2
aI0
aI2
aI2
aI2
aa(lp289
I0
aI0
aI2
aI0
aI1
aI1
aI0
aI1
aI1
aI2
aa(lp290
I2
aI0
aI0
aI1
aI1
aI2
aI0
aI0
aI0
aI0
aa(lp291
I2
aI0
aI0
aI0
aI1
aI1
aI0
aI2
aI2
aI0
aa(lp292
I1
aI1
aI0
aI1
aI0
aI0
aI1
aI2
aI0
aI2
aa(lp293
I0
aI2
aI0
aI1
aI0
aI0
aI1
aI1
aI2
aI0
aa(lp294
I2
aI2
aI1
aI1
aI2
aI1
aI2
aI0
aI1
aI2
aa(lp295
I2
aI2
aI0
aI2
aI2
aI1
aI0
aI2
aI2
aI1
aa(lp296
I2
aI2
aI2
aI0
aI1
aI2
aI2
aI2
aI2
aI2
aa(lp297
I1
aI0
aI0
aI0
aI2
aI2
aI1
aI0
aI0
aI1
aa(lp298
I2
aI2
aI2
aI2
aI1
aI2
aI0
aI2
aI1
aI0
aa(lp299
I2
aI2
aI2
aI0
aI2
aI2
aI0
aI0
aI2
aI1
aa(lp300
I0
aI2
aI0
aI2
aI1
aI2
aI1
aI1
aI2
aI2
aa(lp301
I2
aI2
aI2
aI2
aI1
aI1
aI0
aI0
aI2
aI2
aa(lp302
I2
aI2
aI2
aI1
aI0
aI1
aI2
aI0
aI1
aI2
aa(lp303
I2
aI1
aI1
aI0
aI1
aI0
aI1
aI0
aI1
aI0
aa(lp304
I0
aI2
aI1
aI2
aI2
aI2
aI2
aI0
aI1
aI2
aa(lp305
I1
aI2
aI0
aI1
aI0
aI0
aI1
aI1
aI1
aI0
aa(lp306
I0
aI2
aI2
aI2
aI2
aI2
aI1
aI2
aI0
aI2
aa(lp307
I0
aI0
aI2
aI1
aI0
aI0
aI0
aI2
aI1
aI0
aa(lp308
I0
aI0
aI1
aI1
aI0
aI0
aI0
aI2
aI0
aI1
aa(lp309
I0
aI1
aI1
aI1
aI0
aI0
aI1
aI1
aI1
aI1
aa(lp310
I2
aI2
aI2
aI1
aI2
aI2
aI1
aI0
aI1
aI0
aa(lp311
I1
aI0
aI1
aI0
aI0
aI1
aI0
aI0
aI2
aI0
aa(lp312
I1
aI1
aI2
aI0
aI1
aI0
aI0
aI0
aI0
aI0
aa(lp313
I2
aI0
aI0
aI1
aI2
aI2
aI2
aI2
aI2
aI1
aa(lp314
I1
aI1
aI2
aI2
aI0
aI1
aI2
aI0
aI2
aI2
aa(lp315
I1
aI2
aI2
aI1
aI2
aI2
aI1
aI2
aI2
aI2
aa(lp316
I2
aI0
aI0
aI1
aI0
aI1
aI0
aI0
aI1
aI2
aa(lp317
I1
aI0
aI0
aI1
aI0
aI1
aI0
aI2
aI0
aI0
aa(lp318
I2
aI2
aI0
aI0
aI2
aI1
aI2
aI2
aI2
aI1
aa(lp319
I2
aI2
aI1
aI2
aI0
aI1
aI1
aI2
aI0
aI2
aa(lp320
I2
aI0
aI2
aI0
aI1
aI0
aI0
aI1
aI0
aI1
aa(lp321
I2
aI1
aI1
aI2
aI1
aI2
aI1
aI2
aI0
aI2
aa(lp322
I0
aI2
aI1
aI0
aI0
aI0
aI0
aI0
aI1
aI0
aa(lp323
I0
aI1
aI0
aI0
aI1
aI1
aI0
aI2
aI1
aI0
aa(lp324
I2
aI2
aI1
aI2
aI1
aI1
aI2
aI1
aI2
aI2
aa(lp325
I2
aI2
aI2
aI0
aI1
aI2
aI1
aI2
aI2
aI2
aa(lp326
I0
aI1
aI1
aI0
aI0
aI0
aI0
aI1
aI2
aI1
aa(lp327
I2
aI1
aI1
aI1
aI0
aI0
aI1
aI0
aI0
aI0
aa(lp328
I2
aI2
aI2
aI2
aI1
aI1
aI0
aI2
aI1
aI2
aa(lp329
I1
aI2
aI0
aI1
aI0
aI1
aI0
aI2
aI0
aI0
aa(lp330
I2
aI2
aI2
aI1
aI0
aI2
aI2
aI1
aI2
aI0
aa(lp331
I0
aI1
aI0
aI0
aI0
aI2
aI0
aI2
aI0
aI0
aa(lp332
I0
aI2
aI0
aI0
aI0
aI0
aI0
aI0
aI2
aI0
aa(lp333
I0
aI0
aI1
aI0
aI1
aI1
aI0
aI0
aI0
aI0
aa(lp334
I2
aI2
aI1
aI2
aI2
aI0
aI2
aI2
aI0
aI2
aa(lp335
I0
aI0
aI1
aI1
aI0
aI1
aI0
aI0
aI1
aI0
aa(lp336
I1
aI2
aI2
aI1
aI2
aI0
aI1
aI1
aI2
aI2
aa(lp337
I2
aI2
aI2
aI2
aI2
aI0
aI1
aI2
aI0
aI2
aa(lp338
I2
aI1
aI0
aI0
aI1
aI0
aI2
aI0
aI0
aI0
aa(lp339
I2
aI0
aI2
aI2
aI2
aI2
aI2
aI2
aI2
aI1
aa(lp340
I0
aI1
aI0
aI1
aI0
aI1
aI1
aI1
aI0
aI1
aa(lp341
I1
aI1
aI1
aI1
aI0
aI1
aI0
aI0
aI0
aI0
aa(lp342
I1
aI2
aI2
aI2
aI2
aI0
aI1
aI1
aI2
aI1
aa(lp343
I0
aI0
aI1
aI0
aI0
aI0
aI1
aI2
aI1
aI0
aa(lp344
I1
aI2
aI2
aI0
aI2
aI1
aI2
aI2
aI2
aI2
aa(lp345
I2
aI2
aI1
aI1
aI1
aI2
aI1
aI2
aI2
aI1
aa(lp346
I1
aI0
aI2
aI1
aI1
aI2
aI1
aI2
aI2
aI2
aa(lp347
I0
aI1
aI0
aI1
aI0
aI0
aI0
aI1
aI1
aI2
aa(lp348
I2
aI2
aI0
aI0
aI2
aI2
aI2
aI1
aI1
aI2
aa(lp349
I0
aI0
aI1
aI0
aI0
aI1
aI1
aI1
aI0
aI1
aa(lp350
I0
aI0
aI0
aI0
aI1
aI0
aI0
aI0
aI0
aI0
aa(lp351
I0
aI1
aI1
aI0
aI0
aI0
aI1
aI1
aI0
aI1
aa(lp352
I1
aI2
aI0
aI1
aI0
aI0
aI0
aI0
aI0
aI0
aa(lp353
I0
aI2
aI2
aI1
aI1
aI1
aI2
aI2
aI1
aI2
aa(lp354
I2
aI1
aI2
aI2
aI1
aI2
aI2
aI2
aI0
aI0
aa(lp355
I0
aI0
aI0
aI2
aI1
aI1
aI0
aI1
aI1
aI0
aa(lp356
I1
aI2
aI0
aI2
aI2
aI2
aI1
aI2
aI1
aI1
aa(lp357
I2
aI2
aI0
aI1
aI2
aI0
aI2
aI2
aI2
aI1
aa(lp358
I2
aI2
aI1
aI1
aI1
aI2
aI2
aI1
aI2
aI2
aa(lp359
I2
aI1
aI2
aI2
aI2
aI1
aI2
aI1
aI2
aI2
aa(lp360
I1
aI0
aI0
aI0
aI0
aI0
aI2
aI0
aI1
aI1
aa(lp361
I1
aI2
aI2
aI2
aI2
aI1
aI2
aI2
aI2
aI0
aa(lp362
I0
aI0
aI2
aI1
aI0
aI0
aI2
aI0
aI1
aI0
aa(lp363
I0
aI1
aI0
aI0
aI2
aI0
aI2
aI0
aI0
aI0
aa(lp364
I0
aI2
aI2
aI1
aI2
aI2
aI2
aI2
aI0
aI2
aa(lp365
I2
aI2
aI1
aI2
aI2
aI1
aI2
aI1
aI1
aI0
aa(lp366
I2
aI2
aI1
aI0
aI1
aI2
aI2
aI2
aI2
aI2
aa(lp367
I2
aI2
aI2
aI2
aI1
aI2
aI1
aI1
aI1
aI0
aa(lp368
I0
aI1
aI2
aI1
aI1
aI1
aI0
aI0
aI0
aI0
aa(lp369
I2
aI1
aI1
aI1
aI2
aI2
aI2
aI2
aI1
aI1
aa(lp370
I0
aI1
aI0
aI1
aI1
aI0
aI2
aI0
aI0
aI0
aa(lp371
I0
aI1
aI0
aI0
aI0
aI1
aI1
aI1
aI0
aI1
aa(lp372
I2
aI1
aI2
aI2
aI2
aI0
aI1
aI2
aI2
aI1
aa(lp373
I2
aI2
aI0
aI2
aI2
aI2
aI1
aI0
aI2
aI1
aa(lp374
I2
aI2
aI0
aI2
aI2
aI2
aI2
aI2
aI0
aI1
aa(lp375
I0
aI2
aI2
aI2
aI2
aI1
aI1
aI1
aI1
aI2
aa(lp376
I0
aI0
aI0
aI1
aI1
aI0
aI0
aI0
aI2
aI0
aa(lp377
I0
aI2
aI0
aI0
aI0
aI0
aI0
aI1
aI1
aI0
aa(lp378
I0
aI1
aI0
aI2
aI0
aI0
aI1
aI0
aI1
aI1
aa(lp379
I2
aI2
aI2
aI2
aI0
aI1
aI0
aI2
aI1
aI2
aa(lp380
I0
aI0
aI2
aI0
aI1
aI0
aI1
aI0
aI1
aI0
aa(lp381
I0
aI1
aI0
aI0
aI1
aI1
aI1
aI0
aI0
aI0
aa(lp382
I0
aI1
aI0
aI1
aI0
aI0
aI2
aI0
aI1
aI0
aa(lp383
I0
aI0
aI1
aI0
aI0
aI0
aI0
aI0
aI2
aI1
aa(lp384
I0
aI0
aI0
aI0
aI2
aI0
aI0
aI0
aI2
aI1
aa(lp385
I2
aI1
aI1
aI1
aI2
aI2
aI1
aI0
aI2
aI2
aa(lp386
I1
aI2
aI0
aI2
aI1
aI1
aI2
aI1
aI2
aI2
aa(lp387
I1
aI2
aI2
aI1
aI2
aI2
aI2
aI2
aI2
aI2
aa(lp388
I2
aI1
aI2
aI2
aI2
aI1
aI2
aI2
aI1
aI0
aa(lp389
I1
aI0
aI2
aI1
aI2
aI2
aI2
aI2
aI2
aI2
aa(lp390
I2
aI0
aI2
aI2
aI1
aI1
aI2
aI2
aI0
aI2
aa(lp391
I2
aI2
aI2
aI1
aI1
aI2
aI0
aI1
aI2
aI2
aa(lp392
I2
aI1
aI1
aI2
aI2
aI1
aI1
aI2
aI2
aI1
aa(lp393
I2
aI2
aI2
aI2
aI1
aI1
aI1
aI2
aI0
aI2
aa(lp394
I1
aI1
aI0
aI0
aI0
aI2
aI0
aI0
aI0
aI1
aa(lp395
I0
aI0
aI0
aI0
aI0
aI1
aI1
aI0
aI0
aI2
aa(lp396
I0
aI0
aI0
aI0
aI1
aI2
aI0
aI2
aI0
aI0
aa(lp397
I2
aI1
aI2
aI2
aI2
aI0
aI1
aI2
aI2
aI0
aa(lp398
I1
aI1
aI2
aI0
aI2
aI2
aI2
aI2
aI2
aI2
aa(lp399
I1
aI2
aI2
aI2
aI1
aI1
aI2
aI1
aI1
aI1
aa(lp400
I1
aI0
aI0
aI0
aI1
aI1
aI0
aI0
aI0
aI1
aa(lp401
I0
aI1
aI1
aI1
aI0
aI0
aI2
aI0
aI0
aI0
aa(lp402
I2
aI2
aI1
aI1
aI2
aI2
aI1
aI2
aI2
aI0
aa(lp403
I0
aI2
aI0
aI0
aI0
aI1
aI1
aI0
aI1
aI0
aa(lp404
I1
aI2
aI2
aI2
aI2
aI0
aI2
aI2
aI2
aI0
aa(lp405
I0
aI0
aI1
aI0
aI1
aI0
aI0
aI0
aI1
aI1
aa(lp406
I2
aI2
aI2
aI1
aI1
aI2
aI1
aI2
aI1
aI2
aa(lp407
I0
aI0
aI1
aI0
aI2
aI0
aI1
aI1
aI0
aI0
aa(lp408
I2
aI0
aI2
aI1
aI2
aI2
aI2
aI2
aI0
aI2
aa(lp409
I2
aI1
aI1
aI1
aI2
aI2
aI2
aI1
aI2
aI1
aa(lp410
I1
aI2
aI2
aI2
aI1
aI1
aI1
aI2
aI2
aI1
aa(lp411
I1
aI1
aI2
aI2
aI1
aI2
aI2
aI2
aI2
aI1
aa(lp412
I0
aI0
aI0
aI0
aI2
aI1
aI0
aI0
aI2
aI0
aa(lp413
I1
aI1
aI2
aI2
aI1
aI2
aI2
aI2
aI2
aI2
aa(lp414
I0
aI0
aI0
aI1
aI2
aI0
aI0
aI0
aI2
aI0
aa(lp415
I2
aI2
aI2
aI2
aI2
aI2
aI0
aI2
aI0
aI1
aa(lp416
I2
aI1
aI2
aI2
aI1
aI2
aI0
aI2
aI2
aI1
aa(lp417
I2
aI1
aI2
aI2
aI2
aI1
aI2
aI0
aI1
aI2
aa(lp418
I0
aI2
aI1
aI0
aI0
aI1
aI0
aI0
aI0
aI0
aa(lp419
I2
aI2
aI2
aI1
aI2
aI0
aI2
aI0
aI2
aI2
aa(lp420
I2
aI1
aI2
aI1
aI1
aI2
aI2
aI0
aI2
aI2
aa(lp421
I2
aI2
aI2
aI1
aI1
aI1
aI1
aI1
aI2
aI2
aa(lp422
I0
aI1
aI1
aI0
aI1
aI0
aI0
aI0
aI0
aI0
aa(lp423
I0
aI0
aI0
aI0
aI0
aI2
aI2
aI0
aI0
aI0
aa(lp424
I2
aI2
aI0
aI2
aI0
aI2
aI2
aI2
aI1
aI2
aa(lp425
I2
aI1
aI2
aI1
aI2
aI1
aI2
aI1
aI2
aI1
aa(lp426
I1
aI0
aI0
aI1
aI0
aI0
aI0
aI1
aI2
aI0
aa(lp427
I2
aI1
aI2
aI0
aI2
aI1
aI2
aI1
aI2
aI2
aa(lp428
I2
aI0
aI2
aI2
aI2
aI2
aI0
aI2
aI2
aI2
aa(lp429
I0
aI0
aI0
aI1
aI0
aI1
aI1
aI0
aI1
aI1
aa(lp430
I2
aI1
aI2
aI2
aI2
aI2
aI2
aI2
aI0
aI1
aa(lp431
I0
aI0
aI0
aI0
aI1
aI1
aI2
aI1
aI0
aI0
aa(lp432
I2
aI2
aI1
aI0
aI2
aI2
aI2
aI2
aI2
aI1
aa(lp433
I1
aI2
aI1
aI2
aI1
aI2
aI2
aI2
aI2
aI2
aa(lp434
I1
aI1
aI2
aI2
aI2
aI2
aI2
aI2
aI2
aI2
aa(lp435
I2
aI2
aI1
aI0
aI2
aI2
aI2
aI1
aI2
aI2
aa(lp436
I0
aI1
aI1
aI1
aI0
aI1
aI0
aI0
aI0
aI0
aa(lp437
I0
aI0
aI0
aI2
aI0
aI0
aI1
aI1
aI0
aI0
aa(lp438
I2
aI2
aI1
aI2
aI1
aI1
aI2
aI2
aI1
aI2
aa(lp439
I1
aI1
aI0
aI0
aI0
aI0
aI1
aI0
aI0
aI0
aa(lp440
I1
aI2
aI1
aI2
aI2
aI1
aI2
aI2
aI2
aI2
aa(lp441
I0
aI0
aI2
aI0
aI0
aI0
aI1
aI0
aI0
aI0
aa(lp442
I1
aI2
aI2
aI2
aI2
aI2
aI2
aI2
aI1
aI2
aa(lp443
I1
aI2
aI2
aI2
aI2
aI2
aI1
aI1
aI2
aI1
aa(lp444
I2
aI2
aI2
aI0
aI2
aI1
aI2
aI1
aI2
aI2
aa(lp445
I1
aI0
aI0
aI1
aI0
aI0
aI0
aI0
aI1
aI1
aa(lp446
I1
aI1
aI0
aI0
aI0
aI1
aI0
aI0
aI1
aI0
aa(lp447
I2
aI0
aI2
aI1
aI2
aI1
aI2
aI2
aI2
aI2
aa(lp448
I2
aI1
aI1
aI2
aI2
aI2
aI2
aI2
aI1
aI1
aa(lp449
I0
aI2
aI0
aI0
aI0
aI0
aI0
aI0
aI0
aI0
aa(lp450
I0
aI0
aI2
aI0
aI1
aI0
aI0
aI1
aI0
aI0
aa(lp451
I0
aI0
aI0
aI1
aI0
aI0
aI1
aI1
aI1
aI0
aa(lp452
I2
aI1
aI2
aI1
aI2
aI0
aI2
aI2
aI2
aI2
aa(lp453
I2
aI1
aI0
aI1
aI2
aI2
aI2
aI2
aI2
aI2
aa(lp454
I0
aI0
aI0
aI0
aI0
aI1
aI0
aI1
aI1
aI1
aa(lp455
I2
aI1
aI1
aI2
aI2
aI2
aI0
aI2
aI2
aI2
aa(lp456
I1
aI2
aI2
aI1
aI2
aI0
aI2
aI2
aI2
aI2
aa(lp457
I2
aI2
aI1
aI0
aI2
aI2
aI1
aI2
aI2
aI2
aa(lp458
I1
aI2
aI2
aI2
aI2
aI2
aI1
aI2
aI0
aI2
aa(lp459
I0
aI1
aI1
aI0
aI0
aI1
aI1
aI0
aI0
aI0
aa(lp460
I2
aI2
aI0
aI2
aI2
aI2
aI1
aI1
aI2
aI2
aa(lp461
I2
aI1
aI2
aI2
aI1
aI0
aI2
aI2
aI2
aI2
aa(lp462
I1
aI1
aI0
aI0
aI0
aI0
aI0
aI0
aI0
aI2
aa(lp463
I0
aI0
aI0
aI0
aI0
aI0
aI1
aI0
aI1
aI2
aa(lp464
I1
aI1
aI0
aI0
aI0
aI0
aI0
aI1
aI1
aI0
aa(lp465
I2
aI2
aI2
aI0
aI2
aI2
aI2
aI2
aI1
aI2
aa(lp466
I2
aI1
aI1
aI2
aI2
aI2
aI1
aI2
aI2
aI2
aa(lp467
I0
aI2
aI2
aI1
aI2
aI2
aI2
aI2
aI2
aI1
aa(lp468
I0
aI0
aI1
aI0
aI1
aI0
aI0
aI0
aI1
aI0
aa(lp469
I2
aI1
aI2
aI1
aI1
aI2
aI1
aI2
aI2
aI2
aa(lp470
I0
aI2
aI0
aI0
aI0
aI1
aI1
aI0
aI0
aI0
aa(lp471
I0
aI1
aI0
aI1
aI0
aI0
aI0
aI0
aI0
aI0
aa(lp472
I2
aI2
aI2
aI2
aI2
aI2
aI0
aI2
aI2
aI0
aa(lp473
I0
aI1
aI0
aI0
aI0
aI1
aI0
aI1
aI0
aI1
aa(lp474
I2
aI1
aI2
aI1
aI2
aI2
aI1
aI2
aI1
aI2
aa(lp475
I1
aI2
aI1
aI2
aI2
aI2
aI2
aI2
aI2
aI1
aa(lp476
I2
aI2
aI2
aI2
aI1
aI1
aI2
aI1
aI1
aI2
aa(lp477
I1
aI0
aI1
aI0
aI1
aI0
aI0
aI0
aI0
aI1
aa(lp478
I2
aI2
aI2
aI2
aI1
aI1
aI2
aI2
aI2
aI2
aa(lp479
I0
aI1
aI1
aI0
aI0
aI0
aI1
aI0
aI0
aI0
aa(lp480
I0
aI0
aI0
aI2
aI0
aI0
aI0
aI0
aI0
aI0
aa(lp481
I0
aI0
aI1
aI0
aI0
aI2
aI0
aI1
aI0
aI0
aa(lp482
I0
aI0
aI0
aI0
aI0
aI2
aI1
aI1
aI0
aI0
aa(lp483
I0
aI2
aI1
aI2
aI2
aI2
aI2
aI1
aI2
aI2
aa(lp484
I0
aI0
aI0
aI0
aI0
aI0
aI2
aI0
aI0
aI1
aa(lp485
I0
aI0
aI2
aI0
aI0
aI0
aI1
aI1
aI0
aI0
aa(lp486
I2
aI1
aI0
aI0
aI0
aI0
aI0
aI0
aI0
aI0
aa(lp487
I2
aI2
aI1
aI1
aI2
aI2
aI1
aI2
aI2
aI2
aa(lp488
I2
aI2
aI2
aI1
aI2
aI2
aI2
aI1
aI2
aI1
aa(lp489
I0
aI0
aI1
aI1
aI0
aI0
aI0
aI0
aI0
aI1
aa(lp490
I0
aI0
aI0
aI0
aI0
aI1
aI0
aI0
aI1
aI1
aa(lp491
I2
aI2
aI2
aI2
aI2
aI2
aI2
aI0
aI2
aI2
aa(lp492
I0
aI0
aI0
aI0
aI2
aI0
aI0
aI0
aI1
aI0
aa(lp493
I0
aI0
aI0
aI1
aI0
aI0
aI1
aI1
aI0
aI0
aa(lp494
I1
aI2
aI1
aI1
aI2
aI2
aI2
aI2
aI2
aI2
aa(lp495
I0
aI0
aI0
aI0
aI1
aI1
aI1
aI0
aI0
aI0
aa(lp496
I0
aI0
aI0
aI0
aI1
aI1
aI0
aI1
aI0
aI0
aa(lp497
I0
aI0
aI0
aI0
aI1
aI0
aI0
aI0
aI1
aI0
aa(lp498
I0
aI0
aI1
aI1
aI0
aI0
aI0
aI1
aI0
aI0
aa(lp499
I0
aI0
aI1
aI0
aI2
aI0
aI0
aI0
aI0
aI0
aa(lp500
I0
aI0
aI0
aI0
aI1
aI0
aI0
aI1
aI1
aI0
aa(lp501
I1
aI0
aI0
aI0
aI0
aI2
aI0
aI0
aI0
aI0
aa.