(lp1
(lp2
I0
aI0
aI0
aI0
aI0
aI0
aI0
aI0
aI0
aI0
aI0
aI0
aI0
aI0
aI0
aI0
aa(lp3
I1
aI1
aI1
aI1
aI1
aI1
aI1
aI1
aI1
aI1
aI1
aI1
aI1
aI1
aI1
aI1
aa(lp4
I2
aI2
aI2
aI2
aI2
aI2
aI2
aI2
aI2
aI2
aI2
aI2
aI2
aI2
aI2
aI2
aa(lp5
I2
aI0
aI1
aI2
aI2
aI2
aI1
aI1
aI0
aI1
aI0
aI1
aI1
aI0
aI2
aI0
aa(lp6
I1
aI1
aI2
aI1
aI2
aI0
aI2
aI1
aI1
aI1
aI1
aI1
aI1
aI0
aI2
aI0
aa(lp7
I2
aI1
aI1
aI2
aI2
aI0
aI0
aI0
aI1
aI0
aI1
aI0
aI1
aI2
aI1
aI1
aa(lp8
I2
aI2
aI1
aI1
aI2
aI0
aI2
aI0
aI2
aI0
aI0
aI0
aI1
aI2
aI0
aI0
aa(lp9
I0
aI2
aI1
aI2
aI1
aI1
aI0
aI0
aI0
aI2
aI1
aI2
aI0
aI0
aI2
aI0
aa(lp10
I2
aI2
aI1
aI1
aI1
aI2
aI0
aI1
aI1
aI2
aI1
aI0
aI0
aI0
aI0
aI1
aa(lp11
I1
aI1
aI1
aI2
aI0
aI0
aI2
aI0
aI2
aI0
aI2
aI0
aI2
aI2
aI1
aI1
aa(lp12
I2
aI2
aI1
aI2
aI2
aI1
aI2
aI1
aI1
aI0
aI1
aI2
aI2
aI2
aI1
aI0
aa(lp13
I2
aI0
aI0
aI2
aI1
aI2
aI2
aI2
aI0
aI2
aI0
aI0
aI0
aI1
aI1
aI0
aa(lp14
I0
aI0
aI0
aI0
aI0
aI1
aI1
aI1
aI2
aI0
aI2
aI0
aI2
aI2
aI2
aI1
aa(lp15
I2
aI0
aI0
aI0
aI0
aI2
aI1
aI0
aI2
aI2
aI1
aI2
aI1
aI1
aI1
aI2
aa(lp16
I2
aI1
aI1
aI0
aI0
aI1
aI1
aI0
aI1
aI1
aI0
aI0
aI2
aI1
aI2
aI0
aa(lp17
I2
aI0
aI0
aI0
aI1
aI2
aI0
aI1
aI0
aI0
aI1
aI1
aI1
aI1
aI2
aI1
aa(lp18
I0
aI0
aI2
aI2
aI2
aI0
aI1
aI1
aI1
aI2
aI0
aI0
aI1
aI0
aI2
aI2
aa(lp19
I2
aI0
aI0
aI1
aI2
aI2
aI2
aI0
aI1
aI1
aI1
aI0
aI1
aI1
aI1
aI2
aa(lp20
I0
aI0
aI2
aI2
aI1
aI2
aI2
aI0
aI2
aI1
aI2
aI0
aI1
aI0
aI2
aI0
aa(lp21
I0
aI2
aI1
aI2
aI0
aI2
aI0
aI2
aI0
aI2
aI2
aI1
aI0
aI1
aI2
aI0
aa(lp22
I2
aI1
aI2
aI2
aI1
aI0
aI0
aI2
aI2
aI1
aI0
aI1
aI2
aI2
aI0
aI0
aa(lp23
I1
aI0
aI0
aI2
aI0
aI0
aI1
aI0
aI1
aI2
aI0
aI0
aI1
aI0
aI2
aI2
aa(lp24
I0
aI0
aI2
aI1
aI2
aI1
aI2
aI0
aI1
aI0
aI2
aI0
aI2
aI0
aI1
aI0
aa(lp25
I1
aI2
aI0
aI1
aI1
aI2
aI0
aI1
aI0
aI2
aI2
aI0
aI2
aI2
aI0
aI0
aa(lp26
I2
aI0
aI1
aI0
aI0
aI2
aI0
aI2
aI0
aI1
aI2
aI0
aI2
aI2
aI0
aI0
aa(lp27
I0
aI0
aI2
aI0
aI0
aI0
aI1
aI2
aI2
aI0
aI1
aI1
aI1
aI0
aI1
aI0
aa(lp28
I0
aI0
aI2
aI0
aI0
aI0
aI1
aI0
aI2
aI2
aI2
aI2
aI0
aI2
aI0
aI1
aa(lp29
I2
aI0
aI1
aI1
aI0
aI1
aI0
aI2
aI2
aI1
aI0
aI0
aI1
aI2
aI2
aI2
aa(lp30
I2
aI1
aI1
aI1
aI0
aI0
aI1
aI1
aI0
aI1
aI0
aI2
aI0
aI1
aI0
aI1
aa(lp31
I0
aI1
aI0
aI1
aI0
aI1
aI1
aI0
aI0
aI0
aI2
aI0
aI0
aI0
aI1
aI0
aa(lp32
I2
aI1
aI2
aI0
aI1
aI2
aI1
aI2
aI2
aI2
aI1
aI1
aI0
aI2
aI0
aI2
aa(lp33
I0
aI2
aI1
aI1
aI1
aI0
aI1
aI1
aI2
aI1
aI0
aI1
aI1
aI1
aI2
aI2
aa(lp34
I1
aI1
aI1
aI1
aI2
aI0
aI1
aI2
aI0
aI0
aI2
aI2
aI2
aI0
aI1
aI1
aa(lp35
I0
aI0
aI1
aI2
aI2
aI2
aI0
aI1
aI1
aI2
aI0
aI1
aI2
aI2
aI0
aI1
aa(lp36
I0
aI0
aI2
aI1
aI0
aI2
aI2
aI1
aI1
aI0
aI2
aI2
aI2
aI1
aI2
aI0
aa(lp37
I1
aI2
aI2
aI0
aI2
aI1
aI1
aI1
aI0
aI0
aI0
aI2
aI0
aI0
aI0
aI1
aa(lp38
I1
aI2
aI0
aI2
aI2
aI1
aI0
aI2
aI2
aI0
aI0
aI2
aI1
aI0
aI0
aI1
aa(lp39
I1
aI1
aI1
aI0
aI0
aI2
aI0
aI0
aI0
aI2
aI2
aI1
aI1
aI0
aI1
aI0
aa(lp40
I1
aI0
aI0
aI2
aI1
aI1
aI0
aI1
aI2
aI1
aI0
aI2
aI1
aI2
aI2
aI2
aa(lp41
I1
aI2
aI1
aI1
aI0
aI1
aI1
aI1
aI0
aI0
aI1
aI0
aI2
aI0
aI1
aI2
aa(lp42
I0
aI0
aI2
aI2
aI0
aI0
aI1
aI1
aI2
aI0
aI0
aI0
aI0
aI1
aI2
aI1
aa(lp43
I1
aI1
aI0
aI1
aI0
aI1
aI2
aI0
aI0
aI1
aI1
aI1
aI0
aI2
aI2
aI2
aa(lp44
I0
aI2
aI1
aI2
aI2
aI0
aI1
aI1
aI0
aI1
aI1
aI1
aI1
aI0
aI1
aI0
aa(lp45
I0
aI1
aI1
aI0
aI2
aI1
aI0
aI2
aI2
aI2
aI2
aI2
aI1
aI2
aI1
aI2
aa(lp46
I1
aI2
aI1
aI1
aI0
aI0
aI1
aI2
aI0
aI2
aI0
aI1
aI0
aI2
aI2
aI0
aa(lp47
I0
aI1
aI1
aI0
aI2
aI2
aI0
aI0
aI1
aI1
aI1
aI2
aI0
aI0
aI0
aI1
aa(lp48
I2
aI0
aI1
aI2
aI0
aI0
aI0
aI2
aI0
aI1
aI1
aI2
aI0
aI2
aI2
aI2
aa(lp49
I1
aI1
aI2
aI2
aI2
aI2
aI2
aI0
aI2
aI2
aI1
aI1
aI1
aI1
aI2
aI1
aa(lp50
I2
aI1
aI2
aI1
aI2
aI2
aI2
aI1
aI2
aI1
aI0
aI1
aI1
aI1
aI1
aI1
aa(lp51
I0
aI0
aI1
aI2
aI1
aI0
aI1
aI1
aI1
aI2
aI0
aI0
aI2
aI1
aI0
aI0
aa(lp52
I1
aI1
aI2
aI0
aI0
aI1
aI0
aI1
aI0
aI1
aI2
aI2
aI0
aI2
aI1
aI0
aa(lp53
I0
aI1
aI1
aI0
aI0
aI0
aI0
aI0
aI0
aI2
aI0
aI2
aI1
aI0
aI2
aI1
aa(lp54
I0
aI2
aI2
aI2
aI0
aI0
aI2
aI1
aI0
aI2
aI2
aI1
aI0
aI2
aI2
aI1
aa(lp55
I1
aI1
aI0
aI2
aI0
aI2
aI0
aI1
aI1
aI1
aI2
aI2
aI0
aI2
aI0
aI1
aa(lp56
I2
aI1
aI1
aI0
aI1
aI2
aI0
aI2
aI1
aI2
aI1
aI0
aI2
aI2
aI1
aI1
aa(lp57
I1
aI2
aI2
aI0
aI2
aI2
aI2
aI0
aI2
aI0
aI2
aI2
aI0
aI1
aI2
aI1
aa(lp58
I2
aI2
aI2
aI0
aI2
aI1
aI1
aI1
aI1
aI0
aI2
aI2
aI1
aI2
aI0
aI2
aa(lp59
I1
aI0
aI1
aI0
aI0
aI2
aI0
aI1
aI1
aI1
aI1
aI2
aI2
aI0
aI1
aI2
aa(lp60
I1
aI0
aI1
aI0
aI0
aI1
aI1
aI2
aI0
aI1
aI1
aI2
aI0
aI1
aI0
aI1
aa(lp61
I2
aI1
aI0
aI1
aI2
aI2
aI1
aI1
aI2
aI1
aI1
aI0
aI0
aI2
aI0
aI2
aa(lp62
I0
aI0
aI0
aI1
aI2
aI1
aI0
aI0
aI2
aI0
aI0
aI2
aI1
aI1
aI0
aI2
aa(lp63
I1
aI0
aI0
aI1
aI2
aI1
aI1
aI2
aI1
aI0
aI1
aI0
aI1
aI1
aI1
aI2
aa(lp64
I1
aI0
aI1
aI2
aI2
aI1
aI2
aI0
aI1
aI0
aI2
aI0
aI1
aI1
aI2
aI1
aa(lp65
I2
aI2
aI1
aI0
aI0
aI0
aI1
aI1
aI2
aI1
aI0
aI0
aI1
aI0
aI2
aI0
aa(lp66
I1
aI2
aI0
aI0
aI0
aI1
aI2
aI0
aI2
aI1
aI2
aI1
aI0
aI2
aI0
aI1
aa(lp67
I0
aI2
aI2
aI0
aI2
aI1
aI1
aI2
aI0
aI2
aI0
aI0
aI1
aI2
aI1
aI2
aa(lp68
I0
aI0
aI0
aI1
aI0
aI0
aI1
aI0
aI1
aI0
aI2
aI1
aI1
aI2
aI1
aI0
aa(lp69
I1
aI0
aI2
aI0
aI0
aI0
aI1
aI1
aI0
aI0
aI1
aI2
aI0
aI2
aI1
aI1
aa(lp70
I1
aI1
aI1
aI0
aI2
aI0
aI2
aI1
aI0
aI2
aI1
aI1
aI2
aI2
aI2
aI1
aa(lp71
I2
aI1
aI0
aI2
aI0
aI0
aI2
aI2
aI1
aI2
aI2
aI0
aI2
aI1
aI2
aI1
aa(lp72
I0
aI1
aI2
aI1
aI1
aI1
aI2
aI1
aI1
aI0
aI2
aI0
aI0
aI1
aI2
aI2
aa(lp73
I0
aI0
aI2
aI0
aI2
aI1
aI1
aI1
aI0
aI0
aI1
aI1
aI1
aI1
aI0
aI2
aa(lp74
I0
aI2
aI2
aI1
aI2
aI1
aI1
aI1
aI0
aI2
aI2
aI0
aI0
aI0
aI1
aI2
aa(lp75
I2
aI2
aI2
aI1
aI2
aI0
aI0
aI0
aI0
aI2
aI2
aI1
aI1
aI0
aI0
aI2
aa(lp76
I2
aI2
aI1
aI2
aI1
aI2
aI2
aI1
aI1
aI0
aI0
aI2
aI1
aI2
aI0
aI0
aa(lp77
I2
aI0
aI0
aI2
aI0
aI1
aI2
aI2
aI2
aI1
aI2
aI1
aI1
aI2
aI0
aI0
aa(lp78
I0
aI0
aI0
aI0
aI1
aI2
aI2
aI0
aI2
aI2
aI1
aI2
aI2
aI0
aI0
aI0
aa(lp79
I1
aI2
aI2
aI2
aI1
aI1
aI0
aI1
aI1
aI0
aI0
aI2
aI2
aI0
aI2
aI0
aa(lp80
I0
aI0
aI0
aI1
aI1
aI2
aI0
aI2
aI2
aI1
aI1
aI2
aI1
aI0
aI2
aI2
aa(lp81
I2
aI1
aI0
aI0
aI0
aI1
aI2
aI0
aI1
aI0
aI2
aI1
aI1
aI1
aI2
aI0
aa(lp82
I0
aI2
aI1
aI1
aI1
aI2
aI0
aI1
aI0
aI0
aI2
aI0
aI2
aI1
aI2
aI0
aa(lp83
I2
aI0
aI0
aI0
aI2
aI0
aI2
aI2
aI1
aI1
aI2
aI2
aI2
aI0
aI1
aI2
aa(lp84
I1
aI2
aI2
aI0
aI1
aI2
aI2
aI2
aI2
aI0
aI2
aI2
aI1
aI0
aI1
aI2
aa(lp85
I0
aI2
aI0
aI2
aI1
aI1
aI0
aI0
aI0
aI0
aI2
aI2
aI1
aI2
aI1
aI0
aa(lp86
I0
aI1
aI2
aI0
aI1
aI1
aI0
aI1
aI1
aI0
aI0
aI0
aI2
aI2
aI2
aI0
aa(lp87
I1
aI0
aI2
aI2
aI2
aI2
aI2
aI0
aI0
aI1
aI0
aI2
aI2
aI2
aI0
aI2
aa(lp88
I1
aI1
aI1
aI2
aI0
aI2
aI0
aI0
aI0
aI1
aI0
aI0
aI0
aI2
aI0
aI2
aa(lp89
I1
aI0
aI1
aI1
aI0
aI1
aI2
aI2
aI2
aI1
aI0
aI1
aI2
aI1
aI0
aI0
aa(lp90
I2
aI0
aI0
aI1
aI0
aI0
aI2
aI0
aI1
aI0
aI1
aI1
aI0
aI2
aI0
aI1
aa(lp91
I1
aI2
aI2
aI0
aI0
aI1
aI1
aI0
aI2
aI2
aI0
aI1
aI0
aI2
aI1
aI0
aa(lp92
I0
aI0
aI1
aI0
aI2
aI1
aI1
aI0
aI0
aI1
aI0
aI1
aI0
aI1
aI1
aI1
aa(lp93
I1
aI0
aI1
aI1
aI2
aI2
aI0
aI2
aI1
aI0
aI2
aI0
aI2
aI0
aI2
aI1
aa(lp94
I2
aI1
aI0
aI0
aI2
aI2
aI0
aI2
aI0
aI0
aI2
aI2
aI1
aI2
aI0
aI1
aa(lp95
I2
aI2
aI1
aI2
aI0
aI2
aI1
aI2
aI2
aI0
aI0
aI0
aI1
aI0
aI0
aI0
aa(lp96
I1
aI1
aI2
aI1
aI2
aI2
aI0
aI0
aI0
aI2
aI2
aI2
aI1
aI1
aI0
aI1
aa(lp97
I1
aI1
aI2
aI1
aI2
aI0
aI0
aI0
aI1
aI0
aI2
aI0
aI2
aI1
aI2
aI1
aa(lp98
I0
aI0
aI0
aI2
aI0
aI1
aI1
aI2
aI1
aI0
aI0
aI1
aI2
aI1
aI0
aI1
aa(lp99
I1
aI1
aI2
aI1
aI0
aI0
aI2
aI0
aI1
aI0
aI1
aI0
aI0
aI0
aI0
aI1
aa(lp100
I1
aI1
aI1
aI1
aI2
aI2
aI0
aI0
aI2
aI2
aI1
aI0
aI2
aI2
aI0
aI2
aa(lp101
I2
aI1
aI1
aI1
aI1
aI2
aI1
aI1
aI0
aI2
aI0
aI1
aI1
aI1
aI0
aI1
aa(lp102
I1
aI2
aI2
aI2
aI1
aI0
aI1
aI0
aI2
aI0
aI1
aI0
aI2
aI2
aI0
aI2
aa(lp103
I2
aI0
aI1
aI2
aI1
aI0
aI2
aI2
aI1
aI2
aI2
aI2
aI1
aI1
aI0
aI1
aa(lp104
I0
aI0
aI0
aI0
aI0
aI0
aI1
aI0
aI1
aI1
aI2
aI1
aI2
aI2
aI2
aI0
aa(lp105
I1
aI1
aI1
aI1
aI1
aI1
aI1
aI1
aI2
aI0
aI1
aI0
aI0
aI0
aI0
aI2
aa(lp106
I2
aI2
aI2
aI0
aI1
aI1
aI0
aI0
aI0
aI2
aI2
aI0
aI2
aI2
aI1
aI1
aa(lp107
I0
aI1
aI0
aI1
aI2
aI0
aI0
aI1
aI1
aI2
aI0
aI2
aI1
aI1
aI1
aI0
aa(lp108
I2
aI1
aI2
aI2
aI0
aI0
aI2
aI1
aI2
aI0
aI2
aI1
aI2
aI1
aI2
aI2
aa(lp109
I0
aI0
aI0
aI0
aI0
aI1
aI1
aI1
aI2
aI1
aI0
aI0
aI2
aI1
aI0
aI1
aa(lp110
I0
aI0
aI0
aI0
aI0
aI0
aI0
aI1
aI2
aI1
aI2
aI1
aI1
aI2
aI0
aI2
aa(lp111
I1
aI0
aI0
aI2
aI1
aI0
aI2
aI2
aI0
aI1
aI2
aI0
aI0
aI0
aI1
aI1
aa(lp112
I1
aI0
aI1
aI1
aI1
aI1
aI0
aI0
aI1
aI1
aI2
aI0
aI0
aI1
aI0
aI2
aa(lp113
I2
aI2
aI0
aI0
aI1
aI0
aI2
aI0
aI0
aI1
aI2
aI2
aI1
aI1
aI2
aI0
aa(lp114
I0
aI0
aI0
aI2
aI0
aI2
aI0
aI1
aI2
aI2
aI1
aI1
aI1
aI1
aI1
aI1
aa(lp115
I2
aI0
aI1
aI2
aI1
aI0
aI2
aI2
aI1
aI0
aI1
aI1
aI2
aI0
aI1
aI2
aa(lp116
I2
aI2
aI2
aI1
aI1
aI0
aI1
aI1
aI1
aI0
aI2
aI1
aI2
aI0
aI1
aI1
aa(lp117
I0
aI2
aI0
aI2
aI1
aI1
aI1
aI1
aI2
aI1
aI0
aI0
aI0
aI1
aI2
aI0
aa(lp118
I0
aI1
aI2
aI2
aI2
aI2
aI0
aI0
aI1
aI0
aI2
aI2
aI2
aI1
aI2
aI1
aa(lp119
I1
aI0
aI0
aI0
aI0
aI0
aI0
aI2
aI1
aI0
aI0
aI0
aI2
aI0
aI1
aI0
aa(lp120
I2
aI0
aI2
aI1
aI1
aI0
aI0
aI0
aI1
aI0
aI2
aI0
aI2
aI0
aI0
aI1
aa(lp121
I2
aI0
aI2
aI0
aI1
aI1
aI1
aI0
aI0
aI1
aI2
aI1
aI0
aI1
aI1
aI0
aa(lp122
I1
aI2
aI2
aI2
aI0
aI1
aI2
aI1
aI0
aI1
aI1
aI1
aI2
aI1
aI1
aI2
aa(lp123
I1
aI2
aI0
aI2
aI2
aI2
aI0
aI2
aI0
aI1
aI1
aI2
aI1
aI0
aI1
aI1
aa(lp124
I1
aI1
aI1
aI2
aI1
aI2
aI0
aI1
aI0
aI1
aI0
aI2
aI2
aI1
aI2
aI2
aa(lp125
I0
aI0
aI2
aI0
aI2
aI2
aI0
aI1
aI1
aI2
aI2
aI1
aI0
aI1
aI1
aI1
aa(lp126
I2
aI1
aI0
aI2
aI2
aI0
aI1
aI0
aI2
aI2
aI2
aI1
aI1
aI2
aI0
aI2
aa(lp127
I2
aI0
aI0
aI1
aI1
aI2
aI2
aI1
aI2
aI1
aI0
aI1
aI2
aI2
aI2
aI2
aa(lp128
I2
aI1
aI0
aI0
aI0
aI0
aI1
aI1
aI1
aI1
aI1
aI0
aI0
aI2
aI1
aI1
aa(lp129
I0
aI0
aI1
aI2
aI1
aI1
aI0
aI0
aI2
aI0
aI2
aI1
aI1
aI0
aI2
aI1
aa(lp130
I2
aI2
aI1
aI1
aI1
aI0
aI0
aI2
aI1
aI0
aI0
aI2
aI2
aI0
aI0
aI1
aa(lp131
I1
aI2
aI2
aI2
aI2
aI1
aI0
aI1
aI2
aI0
aI0
aI0
aI2
aI2
aI0
aI1
aa(lp132
I0
aI1
aI1
aI2
aI1
aI2
aI0
aI1
aI2
aI0
aI2
aI0
aI2
aI1
aI1
aI1
aa(lp133
I1
aI2
aI1
aI0
aI1
aI1
aI1
aI1
aI0
aI1
aI2
aI2
aI1
aI1
aI2
aI0
aa(lp134
I2
aI2
aI1
aI2
aI2
aI0
aI2
aI1
aI0
aI0
aI2
aI1
aI1
aI1
aI0
aI0
aa(lp135
I1
aI0
aI1
aI0
aI1
aI0
aI1
aI1
aI2
aI0
aI2
aI2
aI1
aI2
aI1
aI2
aa(lp136
I0
aI1
aI0
aI0
aI1
aI0
aI1
aI2
aI0
aI2
aI0
aI1
aI0
aI0
aI2
aI0
aa(lp137
I1
aI1
aI2
aI2
aI2
aI0
aI1
aI0
aI0
aI0
aI1
aI1
aI0
aI0
aI0
aI0
aa(lp138
I2
aI2
aI0
aI1
aI2
aI2
aI1
aI0
aI1
aI1
aI0
aI2
aI2
aI2
aI0
aI1
aa(lp139
I2
aI0
aI1
aI2
aI2
aI1
aI1
aI1
aI0
aI1
aI2
aI0
aI0
aI0
aI2
aI1
aa(lp140
I1
aI1
aI2
aI0
aI2
aI2
aI1
aI1
aI1
aI2
aI1
aI1
aI2
aI1
aI1
aI2
aa(lp141
I1
aI2
aI2
aI2
aI1
aI0
aI0
aI0
aI0
aI1
aI2
aI1
aI1
aI1
aI0
aI2
aa(lp142
I2
aI2
aI1
aI1
aI0
aI1
aI1
aI1
aI2
aI1
aI1
aI0
aI2
aI2
aI0
aI1
aa(lp143
I0
aI0
aI1
aI2
aI1
aI1
aI0
aI1
aI1
aI0
aI0
aI1
aI1
aI1
aI1
aI0
aa(lp144
I1
aI1
aI0
aI1
aI0
aI2
aI0
aI0
aI2
aI0
aI1
aI1
aI0
aI1
aI0
aI2
aa(lp145
I1
aI1
aI1
aI1
aI1
aI0
aI1
aI0
aI0
aI0
aI1
aI1
aI2
aI0
aI1
aI0
aa(lp146
I0
aI1
aI0
aI0
aI1
aI0
aI1
aI2
aI1
aI2
aI2
aI1
aI1
aI1
aI1
aI0
aa(lp147
I1
aI1
aI0
aI1
aI1
aI1
aI1
aI0
aI0
aI0
aI0
aI0
aI0
aI2
aI1
aI1
aa(lp148
I1
aI2
aI2
aI1
aI0
aI2
aI1
aI0
aI2
aI2
aI0
aI0
aI0
aI0
aI1
aI2
aa(lp149
I2
aI1
aI0
aI0
aI1
aI0
aI1
aI0
aI0
aI2
aI1
aI0
aI1
aI0
aI0
aI0
aa(lp150
I2
aI1
aI1
aI0
aI1
aI2
aI1
aI1
aI1
aI0
aI2
aI0
aI0
aI0
aI0
aI1
aa(lp151
I1
aI0
aI2
aI0
aI1
aI2
aI1
aI0
aI1
aI0
aI2
aI1
aI1
aI2
aI1
aI0
aa(lp152
I1
aI2
aI0
aI1
aI2
aI0
aI1
aI0
aI1
aI0
aI0
aI2
aI2
aI2
aI1
aI1
aa(lp153
I0
aI0
aI2
aI1
aI1
aI2
aI0
aI2
aI1
aI0
aI0
aI1
aI2
aI1
aI1
aI1
aa(lp154
I0
aI1
aI1
aI2
aI0
aI0
aI0
aI2
aI0
aI1
aI1
aI0
aI1
aI2
aI1
aI1
aa(lp155
I1
aI1
aI2
aI2
aI1
aI1
aI2
aI1
aI0
aI2
aI0
aI0
aI2
aI2
aI1
aI0
aa(lp156
I2
aI1
aI0
aI0
aI1
aI0
aI1
aI0
aI1
aI1
aI1
aI2
aI2
aI1
aI2
aI0
aa(lp157
I1
aI0
aI2
aI0
aI2
aI1
aI2
aI2
aI1
aI2
aI1
aI1
aI0
aI1
aI2
aI1
aa(lp158
I1
aI1
aI2
aI1
aI2
aI2
aI1
aI1
aI1
aI0
aI0
aI1
aI0
aI2
aI2
aI2
aa(lp159
I0
aI2
aI2
aI2
aI0
aI1
aI2
aI2
aI2
aI1
aI2
aI2
aI2
aI0
aI1
aI1
aa(lp160
I0
aI1
aI2
aI0
aI0
aI0
aI2
aI1
aI0
aI0
aI1
aI2
aI2
aI1
aI2
aI2
aa(lp161
I2
aI0
aI1
aI1
aI0
aI1
aI1
aI0
aI1
aI1
aI2
aI0
aI0
aI1
aI2
aI2
aa(lp162
I2
aI1
aI2
aI2
aI0
aI0
aI1
aI0
aI0
aI2
aI2
aI2
aI1
aI2
aI1
aI1
aa(lp163
I0
aI2
aI2
aI0
aI1
aI2
aI1
aI0
aI1
aI0
aI1
aI1
aI0
aI0
aI1
aI1
aa(lp164
I0
aI1
aI1
aI2
aI1
aI2
aI2
aI1
aI1
aI1
aI1
aI1
aI1
aI0
aI0
aI1
aa(lp165
I0
aI1
aI0
aI0
aI2
aI1
aI1
aI1
aI2
aI1
aI0
aI0
aI1
aI2
aI2
aI0
aa(lp166
I2
aI0
aI1
aI1
aI1
aI0
aI2
aI2
aI1
aI2
aI0
aI2
aI0
aI0
aI0
aI0
aa(lp167
I2
aI2
aI2
aI1
aI1
aI0
aI2
aI0
aI0
aI1
aI2
aI1
aI0
aI2
aI1
aI2
aa(lp168
I0
aI2
aI0
aI2
aI0
aI1
aI1
aI2
aI1
aI2
aI2
aI2
aI2
aI0
aI2
aI0
aa(lp169
I0
aI1
aI0
aI2
aI0
aI0
aI0
aI0
aI1
aI0
aI0
aI0
aI1
aI1
aI2
aI2
aa(lp170
I0
aI2
aI0
aI1
aI1
aI1
aI2
aI1
aI0
aI1
aI2
aI1
aI0
aI2
aI0
aI0
aa(lp171
I1
aI2
aI1
aI1
aI0
aI2
aI0
aI2
aI2
aI2
aI2
aI1
aI2
aI1
aI0
aI2
aa(lp172
I2
aI1
aI1
aI1
aI1
aI2
aI0
aI2
aI2
aI2
aI0
aI2
aI2
aI2
aI0
aI1
aa(lp173
I2
aI0
aI1
aI0
aI2
aI0
aI0
aI2
aI2
aI1
aI1
aI2
aI2
aI2
aI2
aI1
aa(lp174
I2
aI2
aI2
aI0
aI1
aI1
aI0
aI0
aI1
aI1
aI1
aI1
aI0
aI0
aI0
aI1
aa(lp175
I2
aI1
aI2
aI2
aI0
aI2
aI0
aI1
aI2
aI0
aI0
aI0
aI2
aI2
aI2
aI1
aa(lp176
I1
aI0
aI1
aI1
aI0
aI0
aI1
aI2
aI1
aI1
aI0
aI0
aI1
aI1
aI0
aI0
aa(lp177
I0
aI1
aI0
aI1
aI0
aI0
aI1
aI2
aI0
aI0
aI1
aI0
aI2
aI0
aI1
aI2
aa(lp178
I1
aI0
aI1
aI1
aI1
aI1
aI0
aI2
aI0
aI0
aI2
aI2
aI2
aI0
aI0
aI0
aa(lp179
I0
aI1
aI2
aI2
aI0
aI2
aI2
aI1
aI2
aI1
aI1
aI0
aI0
aI0
aI1
aI0
aa(lp180
I0
aI2
aI0
aI2
aI0
aI2
aI1
aI1
aI2
aI0
aI1
aI0
aI1
aI1
aI0
aI1
aa(lp181
I0
aI0
aI0
aI1
aI1
aI0
aI2
aI0
aI0
aI0
aI0
aI2
aI0
aI2
aI1
aI2
aa(lp182
I1
aI1
aI2
aI0
aI2
aI0
aI0
aI1
aI0
aI1
aI2
aI0
aI1
aI2
aI2
aI0
aa(lp183
I0
aI2
aI2
aI2
aI0
aI1
aI0
aI1
aI2
aI0
aI1
aI2
aI1
aI0
aI2
aI2
aa(lp184
I2
aI0
aI2
aI2
aI2
aI0
aI1
aI0
aI2
aI2
aI1
aI1
aI1
aI2
aI2
aI2
aa(lp185
I0
aI0
aI1
aI0
aI2
aI2
aI1
aI2
aI2
aI1
aI2
aI1
aI2
aI1
aI1
aI2
aa(lp186
I0
aI1
aI0
aI2
aI1
aI0
aI1
aI2
aI0
aI1
aI1
aI1
aI1
aI0
aI0
aI2
aa(lp187
I0
aI1
aI2
aI0
aI0
aI1
aI2
aI0
aI1
aI1
aI2
aI1
aI0
aI2
aI2
aI0
aa(lp188
I2
aI2
aI0
aI1
aI2
aI2
aI0
aI0
aI2
aI2
aI1
aI1
aI1
aI1
aI2
aI1
aa(lp189
I0
aI2
aI0
aI0
aI1
aI1
aI0
aI2
aI0
aI1
aI0
aI1
aI1
aI0
aI1
aI1
aa(lp190
I1
aI2
aI0
aI2
aI1
aI1
aI1
aI2
aI1
aI2
aI0
aI0
aI2
aI1
aI2
aI2
aa(lp191
I0
aI0
aI2
aI0
aI1
aI0
aI0
aI1
aI2
aI0
aI2
aI1
aI2
aI2
aI1
aI1
aa(lp192
I1
aI1
aI0
aI2
aI1
aI0
aI0
aI0
aI1
aI0
aI2
aI1
aI0
aI0
aI1
aI1
aa(lp193
I1
aI1
aI2
aI2
aI0
aI1
aI1
aI1
aI1
aI2
aI2
aI1
aI2
aI0
aI1
aI1
aa(lp194
I0
aI2
aI0
aI2
aI2
aI0
aI2
aI0
aI2
aI2
aI0
aI1
aI2
aI2
aI2
aI1
aa(lp195
I1
aI0
aI1
aI2
aI2
aI0
aI0
aI0
aI2
aI0
aI2
aI2
aI0
aI0
aI2
aI2
aa(lp196
I2
aI1
aI1
aI0
aI2
aI2
aI1
aI0
aI0
aI0
aI0
aI1
aI1
aI0
aI1
aI1
aa(lp197
I0
aI0
aI0
aI0
aI1
aI1
aI0
aI1
aI0
aI1
aI1
aI0
aI0
aI0
aI1
aI0
aa(lp198
I1
aI0
aI1
aI0
aI2
aI2
aI2
aI1
aI0
aI1
aI2
aI1
aI0
aI1
aI0
aI0
aa(lp199
I2
aI2
aI0
aI1
aI0
aI0
aI0
aI2
aI1
aI0
aI0
aI1
aI2
aI1
aI2
aI0
aa(lp200
I1
aI2
aI1
aI1
aI1
aI1
aI2
aI0
aI2
aI1
aI0
aI1
aI2
aI1
aI2
aI2
aa(lp201
I2
aI2
aI2
aI1
aI0
aI1
aI0
aI1
aI1
aI1
aI2
aI0
aI2
aI1
aI2
aI2
aa(lp202
I0
aI2
aI2
aI2
aI1
aI2
aI1
aI2
aI2
aI0
aI1
aI2
aI1
aI0
aI0
aI1
aa(lp203
I1
aI2
aI1
aI0
aI2
aI0
aI1
aI2
aI0
aI1
aI2
aI0
aI0
aI0
aI2
aI0
aa(lp204
I1
aI1
aI0
aI1
aI1
aI2
aI2
aI0
aI0
aI1
aI1
aI2
aI0
aI0
aI0
aI0
aa(lp205
I0
aI2
aI2
aI0
aI0
aI0
aI0
aI2
aI2
aI2
aI2
aI0
aI2
aI2
aI2
aI1
aa(lp206
I0
aI0
aI1
aI1
aI2
aI1
aI0
aI1
aI0
aI2
aI1
aI1
aI1
aI2
aI2
aI1
aa(lp207
I2
aI0
aI0
aI0
aI0
aI2
aI1
aI1
aI0
aI1
aI0
aI0
aI1
aI2
aI0
aI2
aa(lp208
I0
aI2
aI0
aI1
aI0
aI0
aI1
aI1
aI2
aI0
aI2
aI1
aI0
aI2
aI0
aI0
aa(lp209
I2
aI2
aI1
aI2
aI0
aI1
aI0
aI2
aI0
aI2
aI0
aI1
aI0
aI2
aI2
aI2
aa(lp210
I1
aI1
aI2
aI1
aI2
aI0
aI1
aI2
aI2
aI2
aI0
aI2
aI2
aI1
aI0
aI2
aa(lp211
I2
aI1
aI2
aI2
aI2
aI0
aI1
aI2
aI2
aI2
aI2
aI2
aI1
aI0
aI0
aI0
aa(lp212
I2
aI2
aI2
aI2
aI1
aI2
aI0
aI2
aI1
aI0
aI2
aI2
aI2
aI0
aI2
aI2
aa(lp213
I2
aI2
aI1
aI0
aI0
aI0
aI0
aI2
aI0
aI2
aI2
aI1
aI0
aI1
aI1
aI0
aa(lp214
I0
aI0
aI2
aI2
aI2
aI1
aI2
aI1
aI0
aI2
aI1
aI2
aI0
aI0
aI0
aI1
aa(lp215
I2
aI2
aI2
aI0
aI1
aI0
aI1
aI0
aI2
aI2
aI2
aI2
aI2
aI2
aI1
aI1
aa(lp216
I0
aI0
aI2
aI2
aI2
aI2
aI2
aI1
aI0
aI1
aI2
aI0
aI1
aI2
aI1
aI2
aa(lp217
I0
aI1
aI2
aI1
aI1
aI1
aI1
aI2
aI0
aI0
aI1
aI0
aI0
aI2
aI1
aI0
aa(lp218
I0
aI1
aI2
aI0
aI2
aI1
aI2
aI1
aI1
aI0
aI1
aI0
aI1
aI0
aI1
aI0
aa(lp219
I2
aI1
aI2
aI0
aI2
aI1
aI1
aI1
aI1
aI0
aI1
aI2
aI0
aI0
aI2
aI2
aa(lp220
I0
aI2
aI0
aI1
aI0
aI1
aI2
aI0
aI0
aI1
aI1
aI0
aI0
aI0
aI1
aI1
aa(lp221
I2
aI2
aI0
aI2
aI1
aI2
aI2
aI2
aI2
aI0
aI1
aI2
aI1
aI2
aI0
aI1
aa(lp222
I0
aI0
aI1
aI1
aI1
aI0
aI1
aI0
aI0
aI2
aI2
aI2
aI1
aI1
aI2
aI0
aa(lp223
I1
aI2
aI2
aI2
aI2
aI0
aI1
aI2
aI2
aI2
aI2
aI2
aI0
aI0
aI1
aI0
aa(lp224
I0
aI1
aI2
aI1
aI1
aI2
aI1
aI2
aI2
aI1
aI1
aI0
aI1
aI0
aI2
aI1
aa(lp225
I0
aI0
aI2
aI0
aI1
aI1
aI2
aI0
aI1
aI0
aI0
aI0
aI0
aI0
aI0
aI0
aa(lp226
I1
aI1
aI1
aI2
aI1
aI1
aI2
aI1
aI2
aI0
aI0
aI1
aI2
aI2
aI2
aI2
aa(lp227
I1
aI1
aI1
aI1
aI2
aI2
aI1
aI1
aI2
aI2
aI0
aI1
aI2
aI0
aI2
aI2
aa(lp228
I1
aI2
aI2
aI1
aI2
aI2
aI1
aI2
aI2
aI2
aI0
aI1
aI0
aI2
aI0
aI2
aa(lp229
I0
aI1
aI2
aI1
aI1
aI0
aI0
aI2
aI1
aI2
aI0
aI2
aI0
aI2
aI0
aI2
aa(lp230
I2
aI1
aI0
aI1
aI2
aI0
aI2
aI1
aI2
aI2
aI2
aI0
aI1
aI0
aI2
aI2
aa(lp231
I0
aI1
aI0
aI1
aI0
aI2
aI0
aI0
aI2
aI0
aI1
aI0
aI2
aI2
aI0
aI1
aa(lp232
I1
aI1
aI2
aI2
aI0
aI0
aI2
aI1
aI2
aI2
aI2
aI1
aI1
aI1
aI1
aI1
aa(lp233
I2
aI2
aI0
aI0
aI1
aI0
aI2
aI1
aI2
aI2
aI1
aI0
aI2
aI0
aI0
aI1
aa(lp234
I2
aI2
aI1
aI2
aI0
aI1
aI1
aI2
aI0
aI2
aI1
aI1
aI0
aI0
aI2
aI1
aa(lp235
I2
aI2
aI1
aI0
aI2
aI0
aI0
aI0
aI2
aI2
aI0
aI2
aI2
aI1
aI0
aI2
aa(lp236
I1
aI0
aI0
aI0
aI0
aI2
aI2
aI2
aI1
aI2
aI2
aI1
aI0
aI0
aI0
aI0
aa(lp237
I1
aI2
aI0
aI2
aI0
aI1
aI1
aI0
aI2
aI1
aI2
aI1
aI1
aI2
aI1
aI2
aa(lp238
I1
aI1
aI0
aI1
aI0
aI1
aI2
aI0
aI1
aI1
aI0
aI1
aI0
aI0
aI1
aI2
aa(lp239
I1
aI2
aI2
aI0
aI0
aI2
aI1
aI2
aI2
aI1
aI2
aI2
aI0
aI2
aI1
aI0
aa(lp240
I0
aI2
aI1
aI0
aI0
aI0
aI0
aI0
aI1
aI0
aI0
aI1
aI0
aI0
aI1
aI1
aa(lp241
I1
aI1
aI2
aI1
aI0
aI0
aI1
aI2
aI2
aI2
aI1
aI2
aI1
aI1
aI2
aI1
aa(lp242
I2
aI2
aI2
aI2
aI2
aI0
aI1
aI2
aI1
aI2
aI2
aI2
aI1
aI0
aI1
aI0
aa(lp243
I2
aI1
aI1
aI2
aI2
aI1
aI1
aI1
aI1
aI1
aI2
aI2
aI0
aI1
aI0
aI1
aa(lp244
I0
aI1
aI0
aI1
aI1
aI1
aI2
aI1
aI1
aI1
aI0
aI0
aI1
aI0
aI0
aI0
aa(lp245
I1
aI2
aI0
aI0
aI0
aI1
aI0
aI2
aI2
aI2
aI2
aI2
aI2
aI2
aI1
aI1
aa(lp246
I1
aI1
aI0
aI2
aI1
aI0
aI2
aI1
aI0
aI2
aI1
aI1
aI0
aI2
aI0
aI2
aa(lp247
I1
aI0
aI0
aI2
aI1
aI2
aI0
aI1
aI0
aI1
aI0
aI2
aI0
aI0
aI1
aI1
aa(lp248
I0
aI1
aI2
aI2
aI2
aI1
aI0
aI2
aI2
aI1
aI2
aI0
aI0
aI0
aI2
aI2
aa(lp249
I0
aI2
aI0
aI0
aI1
aI1
aI1
aI2
aI2
aI0
aI0
aI2
aI2
aI1
aI1
aI1
aa(lp250
I0
aI1
aI1
aI1
aI2
aI0
aI0
aI2
aI0
aI0
aI1
aI0
aI0
aI2
aI2
aI1
aa(lp251
I2
aI2
aI0
aI0
aI0
aI1
aI0
aI0
aI0
aI2
aI0
aI2
aI0
aI0
aI0
aI2
aa(lp252
I0
aI0
aI0
aI0
aI0
aI0
aI2
aI0
aI1
aI0
aI1
aI2
aI2
aI1
aI2
aI0
aa(lp253
I1
aI0
aI0
aI0
aI1
aI0
aI1
aI1
aI0
aI0
aI0
aI0
aI1
aI1
aI2
aI0
aa(lp254
I0
aI2
aI2
aI0
aI1
aI2
aI0
aI1
aI2
aI1
aI2
aI2
aI0
aI2
aI1
aI0
aa(lp255
I0
aI0
aI1
aI1
aI0
aI0
aI2
aI2
aI0
aI1
aI2
aI0
aI1
aI2
aI0
aI1
aa(lp256
I2
aI0
aI2
aI2
aI1
aI1
aI0
aI1
aI1
aI1
aI1
aI1
aI2
aI2
aI1
aI2
aa(lp257
I0
aI0
aI2
aI2
aI1
aI2
aI2
aI0
aI0
aI2
aI2
aI0
aI1
aI1
aI2
aI1
aa(lp258
I0
aI0
aI2
aI0
aI1
aI0
aI2
aI1
aI0
aI2
aI0
aI0
aI1
aI1
aI1
aI2
aa(lp259
I2
aI2
aI0
aI2
aI1
aI2
aI2
aI1
aI2
aI0
aI1
aI1
aI2
aI2
aI2
aI1
aa(lp260
I1
aI0
aI2
aI1
aI1
aI2
aI2
aI1
aI0
aI2
aI0
aI1
aI2
aI0
aI2
aI2
aa(lp261
I2
aI2
aI2
aI0
aI1
aI2
aI0
aI2
aI1
aI1
aI1
aI2
aI1
aI1
aI0
aI0
aa(lp262
I2
aI2
aI1
aI1
aI0
aI0
aI2
aI1
aI2
aI0
aI2
aI2
aI1
aI2
aI2
aI0
aa(lp263
I2
aI2
aI2
aI2
aI2
aI2
aI2
aI1
aI1
aI0
aI0
aI1
aI2
aI1
aI1
aI2
aa(lp264
I1
aI1
aI2
aI0
aI1
aI2
aI1
aI1
aI0
aI0
aI2
aI2
aI2
aI1
aI2
aI2
aa(lp265
I0
aI1
aI2
aI2
aI1
aI2
aI1
aI2
aI1
aI1
aI2
aI2
aI1
aI1
aI2
aI1
aa(lp266
I2
aI2
aI2
aI0
aI2
aI1
aI0
aI2
aI1
aI2
aI1
aI0
aI2
aI0
aI1
aI2
aa(lp267
I2
aI0
aI1
aI2
aI1
aI2
aI2
aI1
aI0
aI1
aI1
aI0
aI0
aI2
aI2
aI2
aa(lp268
I1
aI0
aI1
aI1
aI1
aI1
aI1
aI1
aI0
aI1
aI0
aI0
aI0
aI0
aI0
aI2
aa(lp269
I0
aI1
aI0
aI1
aI2
aI0
aI1
aI2
aI0
aI1
aI0
aI0
aI1
aI0
aI0
aI0
aa(lp270
I2
aI0
aI1
aI2
aI2
aI0
aI2
aI1
aI2
aI2
aI2
aI2
aI0
aI0
aI1
aI2
aa(lp271
I1
aI2
aI2
aI1
aI1
aI0
aI2
aI1
aI1
aI2
aI1
aI2
aI2
aI2
aI0
aI1
aa(lp272
I2
aI0
aI1
aI0
aI2
aI2
aI2
aI2
aI0
aI0
aI2
aI2
aI2
aI1
aI1
aI2
aa(lp273
I1
aI2
aI0
aI0
aI0
aI0
aI1
aI0
aI0
aI0
aI0
aI0
aI1
aI0
aI2
aI1
aa(lp274
I0
aI1
aI2
aI2
aI0
aI1
aI1
aI0
aI0
aI0
aI1
aI1
aI0
aI1
aI1
aI0
aa(lp275
I1
aI2
aI0
aI1
aI0
aI0
aI0
aI0
aI0
aI0
aI0
aI2
aI1
aI1
aI0
aI2
aa(lp276
I2
aI2
aI0
aI2
aI0
aI1
aI2
aI1
aI2
aI2
aI1
aI2
aI2
aI2
aI0
aI0
aa(lp277
I0
aI0
aI0
aI2
aI1
aI1
aI0
aI1
aI1
aI0
aI2
aI0
aI1
aI2
aI0
aI0
aa(lp278
I1
aI2
aI0
aI2
aI1
aI1
aI2
aI1
aI1
aI2
aI0
aI1
aI2
aI1
aI2
aI2
aa(lp279
I1
aI2
aI2
aI2
aI2
aI1
aI2
aI2
aI2
aI0
aI1
aI2
aI1
aI2
aI2
aI0
aa(lp280
I2
aI1
aI0
aI0
aI2
aI0
aI1
aI0
aI1
aI1
aI1
aI0
aI2
aI0
aI0
aI0
aa(lp281
I1
aI2
aI0
aI0
aI0
aI1
aI0
aI0
aI2
aI0
aI2
aI0
aI0
aI0
aI1
aI0
aa(lp282
I0
aI1
aI1
aI1
aI2
aI2
aI2
aI2
aI1
aI0
aI1
aI2
aI2
aI2
aI2
aI2
aa(lp283
I0
aI1
aI0
aI1
aI2
aI1
aI1
aI1
aI0
aI0
aI0
aI0
aI2
aI0
aI1
aI0
aa(lp284
I2
aI0
aI1
aI2
aI2
aI1
aI2
aI2
aI0
aI2
aI2
aI2
aI1
aI0
aI2
aI1
aa(lp285
I2
aI0
aI0
aI1
aI2
aI1
aI1
aI0
aI1
aI0
aI0
aI2
aI0
aI0
aI0
aI0
aa(lp286
I1
aI2
aI2
aI1
aI2
aI0
aI2
aI2
aI0
aI2
aI2
aI2
aI2
aI2
aI0
aI1
aa(lp287
I0
aI1
aI1
aI0
aI0
aI0
aI2
aI0
aI2
aI2
aI0
aI1
aI1
aI0
aI1
aI0
aa(lp288
I0
aI1
aI1
aI0
aI0
aI1
aI0
aI2
aI0
aI0
aI1
aI0
aI1
aI1
aI2
aI1
aa(lp289
I2
aI1
aI1
aI1
aI2
aI1
aI1
aI1
aI2
aI2
aI2
aI0
aI1
aI2
aI0
aI2
aa(lp290
I1
aI1
aI1
aI1
aI2
aI2
aI1
aI1
aI1
aI2
aI0
aI2
aI1
aI1
aI2
aI2
aa(lp291
I1
aI2
aI2
aI0
aI0
aI0
aI2
aI0
aI1
aI0
aI1
aI0
aI1
aI0
aI1
aI0
aa(lp292
I2
aI1
aI1
aI1
aI1
aI0
aI2
aI0
aI1
aI0
aI0
aI0
aI0
aI1
aI1
aI0
aa(lp293
I0
aI0
aI0
aI0
aI2
aI1
aI0
aI0
aI0
aI0
aI2
aI0
aI0
aI0
aI2
aI1
aa(lp294
I1
aI1
aI2
aI2
aI1
aI0
aI2
aI2
aI1
aI1
aI2
aI1
aI2
aI1
aI0
aI2
aa(lp295
I0
aI1
aI2
aI1
aI1
aI2
aI2
aI1
aI2
aI2
aI2
aI2
aI2
aI2
aI1
aI0
aa(lp296
I2
aI2
aI2
aI1
aI2
aI2
aI2
aI1
aI2
aI2
aI1
aI0
aI2
aI0
aI1
aI2
aa(lp297
I1
aI0
aI1
aI0
aI0
aI2
aI1
aI0
aI1
aI0
aI1
aI0
aI2
aI1
aI1
aI0
aa(lp298
I0
aI2
aI1
aI0
aI0
aI2
aI1
aI1
aI1
aI0
aI0
aI0
aI2
aI0
aI1
aI0
aa(lp299
I2
aI1
aI2
aI1
aI0
aI1
aI1
aI2
aI1
aI1
aI1
aI1
aI2
aI2
aI2
aI2
aa(lp300
I1
aI0
aI0
aI1
aI2
aI0
aI1
aI1
aI0
aI0
aI0
aI1
aI0
aI1
aI0
aI0
aa(lp301
I0
aI0
aI0
aI2
aI0
aI0
aI1
aI1
aI0
aI2
aI0
aI1
aI0
aI1
aI0
aI0
aa(lp302
I1
aI0
aI2
aI1
aI0
aI0
aI0
aI0
aI1
aI2
aI0
aI2
aI0
aI0
aI1
aI0
aa(lp303
I2
aI1
aI2
aI2
aI2
aI0
aI1
aI2
aI2
aI0
aI1
aI1
aI2
aI0
aI2
aI2
aa(lp304
I2
aI2
aI2
aI2
aI1
aI0
aI0
aI2
aI1
aI1
aI1
aI2
aI1
aI2
aI1
aI1
aa(lp305
I0
aI0
aI1
aI2
aI2
aI0
aI1
aI0
aI0
aI0
aI1
aI1
aI0
aI0
aI0
aI1
aa(lp306
I2
aI0
aI0
aI0
aI2
aI1
aI0
aI2
aI0
aI0
aI0
aI0
aI2
aI1
aI1
aI0
aa(lp307
I1
aI0
aI1
aI0
aI2
aI0
aI1
aI0
aI1
aI0
aI0
aI1
aI1
aI1
aI2
aI0
aa(lp308
I1
aI2
aI2
aI0
aI1
aI1
aI1
aI1
aI0
aI0
aI1
aI0
aI1
aI0
aI0
aI0
aa(lp309
I1
aI2
aI0
aI0
aI1
aI1
aI0
aI1
aI0
aI2
aI0
aI0
aI1
aI0
aI1
aI0
aa(lp310
I2
aI0
aI2
aI1
aI2
aI2
aI2
aI2
aI0
aI2
aI2
aI1
aI1
aI1
aI2
aI2
aa(lp311
I2
aI1
aI1
aI2
aI0
aI2
aI2
aI2
aI2
aI0
aI2
aI2
aI1
aI1
aI1
aI1
aa(lp312
I2
aI1
aI0
aI1
aI2
aI2
aI2
aI2
aI1
aI2
aI2
aI2
aI1
aI1
aI1
aI2
aa(lp313
I2
aI1
aI1
aI1
aI2
aI2
aI1
aI2
aI2
aI2
aI2
aI1
aI2
aI1
aI1
aI1
aa(lp314
I2
aI2
aI1
aI2
aI2
aI2
aI2
aI2
aI2
aI2
aI0
aI0
aI1
aI2
aI1
aI0
aa(lp315
I1
aI1
aI0
aI0
aI0
aI1
aI2
aI2
aI0
aI0
aI2
aI0
aI0
aI0
aI1
aI0
aa(lp316
I1
aI2
aI0
aI0
aI2
aI2
aI1
aI1
aI1
aI2
aI2
aI1
aI2
aI2
aI2
aI1
aa(lp317
I0
aI1
aI1
aI0
aI0
aI2
aI1
aI0
aI0
aI1
aI0
aI0
aI0
aI0
aI1
aI0
aa(lp318
I1
aI1
aI0
aI2
aI0
aI0
aI1
aI0
aI1
aI1
aI0
aI0
aI0
aI0
aI2
aI1
aa(lp319
I2
aI1
aI1
aI2
aI2
aI0
aI2
aI2
aI2
aI0
aI1
aI2
aI2
aI2
aI1
aI1
aa(lp320
I1
aI0
aI0
aI0
aI1
aI1
aI1
aI0
aI0
aI1
aI2
aI0
aI0
aI2
aI1
aI0
aa(lp321
I1
aI0
aI1
aI0
aI0
aI0
aI0
aI0
aI0
aI0
aI0
aI0
aI0
aI2
aI2
aI0
aa(lp322
I2
aI2
aI0
aI2
aI2
aI1
aI2
aI0
aI2
aI2
aI2
aI2
aI0
aI2
aI2
aI2
aa(lp323
I2
aI0
aI0
aI0
aI0
aI1
aI1
aI2
aI0
aI0
aI1
aI0
aI1
aI1
aI0
aI0
aa(lp324
I2
aI1
aI2
aI0
aI1
aI1
aI1
aI2
aI2
aI2
aI2
aI1
aI0
aI1
aI2
aI2
aa(lp325
I2
aI1
aI2
aI1
aI2
aI1
aI2
aI0
aI1
aI1
aI2
aI2
aI2
aI0
aI2
aI1
aa(lp326
I2
aI0
aI1
aI2
aI0
aI0
aI0
aI0
aI0
aI0
aI0
aI0
aI0
aI2
aI1
aI0
aa(lp327
I1
aI2
aI1
aI0
aI2
aI2
aI2
aI1
aI1
aI2
aI1
aI1
aI2
aI1
aI2
aI1
aa(lp328
I1
aI1
aI1
aI1
aI2
aI0
aI1
aI2
aI1
aI2
aI1
aI2
aI2
aI2
aI2
aI2
aa(lp329
I2
aI2
aI2
aI1
aI1
aI1
aI2
aI2
aI2
aI0
aI2
aI2
aI1
aI1
aI2
aI0
aa(lp330
I1
aI0
aI1
aI1
aI1
aI1
aI2
aI0
aI0
aI0
aI0
aI1
aI0
aI1
aI1
aI0
aa(lp331
I2
aI2
aI2
aI2
aI2
aI2
aI1
aI2
aI0
aI0
aI2
aI2
aI1
aI1
aI1
aI2
aa(lp332
I0
aI2
aI0
aI2
aI0
aI2
aI2
aI2
aI1
aI2
aI2
aI2
aI2
aI1
aI1
aI1
aa(lp333
I0
aI0
aI1
aI0
aI2
aI1
aI1
aI0
aI1
aI0
aI1
aI0
aI1
aI0
aI1
aI0
aa(lp334
I2
aI2
aI0
aI2
aI2
aI1
aI2
aI1
aI2
aI1
aI2
aI0
aI1
aI2
aI1
aI2
aa(lp335
I0
aI1
aI0
aI0
aI0
aI0
aI2
aI1
aI0
aI2
aI1
aI0
aI2
aI0
aI1
aI0
aa(lp336
I0
aI1
aI1
aI2
aI2
aI0
aI0
aI2
aI2
aI2
aI2
aI1
aI2
aI2
aI2
aI1
aa(lp337
I0
aI0
aI0
aI2
aI0
aI0
aI1
aI1
aI0
aI0
aI1
aI1
aI0
aI2
aI0
aI1
aa(lp338
I2
aI1
aI1
aI2
aI2
aI2
aI1
aI1
aI1
aI2
aI1
aI1
aI1
aI2
aI2
aI0
aa(lp339
I0
aI0
aI0
aI2
aI1
aI0
aI2
aI1
aI0
aI0
aI2
aI0
aI0
aI1
aI1
aI0
aa(lp340
I0
aI2
aI2
aI0
aI0
aI2
aI2
aI2
aI1
aI2
aI1
aI1
aI2
aI2
aI1
aI2
aa(lp341
I0
aI2
aI1
aI0
aI0
aI0
aI0
aI0
aI1
aI0
aI1
aI1
aI0
aI2
aI0
aI1
aa(lp342
I0
aI1
aI0
aI1
aI0
aI2
aI1
aI1
aI0
aI1
aI0
aI0
aI0
aI0
aI0
aI0
aa(lp343
I2
aI1
aI0
aI0
aI0
aI1
aI0
aI0
aI2
aI0
aI1
aI0
aI1
aI1
aI0
aI0
aa(lp344
I0
aI0
aI0
aI0
aI1
aI0
aI0
aI0
aI0
aI2
aI1
aI0
aI0
aI0
aI0
aI0
aa(lp345
I1
aI0
aI0
aI0
aI0
aI1
aI0
aI0
aI0
aI1
aI2
aI1
aI0
aI2
aI0
aI1
aa(lp346
I0
aI2
aI0
aI0
aI2
aI1
aI1
aI2
aI1
aI2
aI2
aI1
aI2
aI2
aI2
aI2
aa(lp347
I2
aI2
aI2
aI1
aI0
aI1
aI2
aI2
aI1
aI2
aI0
aI0
aI2
aI2
aI2
aI2
aa(lp348
I2
aI2
aI0
aI2
aI2
aI2
aI0
aI2
aI0
aI2
aI2
aI0
aI2
aI2
aI2
aI2
aa(lp349
I1
aI1
aI0
aI0
aI2
aI0
aI0
aI0
aI0
aI0
aI1
aI0
aI2
aI2
aI0
aI0
aa(lp350
I2
aI2
aI2
aI2
aI2
aI2
aI1
aI1
aI1
aI1
aI0
aI2
aI2
aI1
aI1
aI1
aa(lp351
I1
aI0
aI0
aI0
aI1
aI0
aI2
aI1
aI0
aI0
aI1
aI0
aI0
aI1
aI0
aI2
aa(lp352
I1
aI1
aI0
aI2
aI2
aI1
aI1
aI2
aI2
aI2
aI2
aI2
aI2
aI2
aI1
aI2
aa(lp353
I0
aI1
aI0
aI0
aI0
aI2
aI0
aI0
aI2
aI0
aI0
aI0
aI0
aI2
aI1
aI0
aa(lp354
I2
aI1
aI2
aI1
aI2
aI0
aI2
aI2
aI2
aI0
aI2
aI1
aI2
aI1
aI2
aI2
aa(lp355
I0
aI1
aI0
aI0
aI1
aI2
aI1
aI0
aI1
aI0
aI0
aI0
aI0
aI1
aI2
aI0
aa(lp356
I0
aI2
aI0
aI0
aI0
aI0
aI0
aI2
aI2
aI1
aI0
aI0
aI0
aI0
aI0
aI2
aa(lp357
I0
aI1
aI0
aI1
aI2
aI0
aI0
aI0
aI0
aI1
aI1
aI0
aI1
aI0
aI0
aI0
aa(lp358
I2
aI2
aI2
aI1
aI0
aI2
aI0
aI0
aI1
aI2
aI2
aI2
aI2
aI1
aI2
aI2
aa(lp359
I0
aI0
aI1
aI0
aI0
aI1
aI0
aI0
aI1
aI1
aI2
aI1
aI0
aI0
aI0
aI1
aa(lp360
I1
aI0
aI0
aI0
aI0
aI0
aI0
aI2
aI1
aI1
aI0
aI1
aI1
aI0
aI1
aI0
aa(lp361
I2
aI1
aI1
aI1
aI2
aI1
aI2
aI0
aI2
aI1
aI2
aI2
aI2
aI1
aI1
aI2
aa(lp362
I0
aI0
aI1
aI0
aI0
aI0
aI1
aI2
aI2
aI1
aI0
aI0
aI0
aI0
aI1
aI0
aa(lp363
I0
aI2
aI0
aI0
aI0
aI0
aI0
aI0
aI0
aI0
aI0
aI0
aI1
aI1
aI2
aI1
aa(lp364
I1
aI0
aI0
aI0
aI2
aI1
aI0
aI0
aI0
aI0
aI0
aI1
aI0
aI1
aI1
aI1
aa(lp365
I1
aI0
aI1
aI1
aI0
aI0
aI0
aI0
aI0
aI2
aI2
aI0
aI1
aI0
aI1
aI0
aa(lp366
I0
aI0
aI2
aI1
aI1
aI2
aI0
aI1
aI1
aI0
aI0
aI0
aI0
aI0
aI0
aI0
aa(lp367
I2
aI1
aI0
aI1
aI0
aI0
aI1
aI0
aI0
aI0
aI0
aI1
aI2
aI0
aI0
aI0
aa(lp368
I0
aI2
aI0
aI0
aI0
aI0
aI1
aI1
aI0
aI1
aI0
aI2
aI0
aI1
aI0
aI0
aa(lp369
I2
aI2
aI2
aI1
aI1
aI2
aI1
aI1
aI2
aI2
aI2
aI1
aI2
aI0
aI2
aI0
aa(lp370
I2
aI1
aI1
aI2
aI2
aI2
aI0
aI2
aI2
aI2
aI2
aI1
aI2
aI1
aI1
aI0
aa(lp371
I2
aI2
aI2
aI2
aI1
aI2
aI2
aI2
aI1
aI1
aI2
aI1
aI1
aI0
aI2
aI2
aa(lp372
I1
aI2
aI1
aI1
aI1
aI2
aI1
aI2
aI2
aI1
aI2
aI1
aI1
aI2
aI2
aI2
aa(lp373
I2
aI0
aI2
aI1
aI2
aI2
aI1
aI2
aI2
aI1
aI2
aI0
aI1
aI2
aI1
aI2
aa(lp374
I2
aI1
aI2
aI0
aI1
aI1
aI2
aI1
aI0
aI2
aI1
aI2
aI2
aI2
aI2
aI2
aa(lp375
I0
aI1
aI1
aI0
aI0
aI1
aI1
aI0
aI0
aI0
aI0
aI1
aI2
aI0
aI1
aI1
aa(lp376
I0
aI0
aI0
aI1
aI0
aI2
aI1
aI0
aI2
aI0
aI0
aI1
aI0
aI0
aI0
aI1
aa(lp377
I0
aI2
aI2
aI2
aI0
aI1
aI2
aI1
aI2
aI2
aI1
aI0
aI2
aI2
aI2
aI2
aa(lp378
I2
aI0
aI1
aI0
aI1
aI1
aI0
aI0
aI0
aI0
aI0
aI0
aI0
aI2
aI1
aI1
aa(lp379
I1
aI1
aI1
aI0
aI0
aI0
aI1
aI0
aI0
aI2
aI0
aI0
aI0
aI1
aI0
aI2
aa(lp380
I0
aI0
aI0
aI0
aI0
aI0
aI0
aI0
aI1
aI0
aI1
aI2
aI0
aI0
aI0
aI0
aa(lp381
I1
aI2
aI2
aI1
aI2
aI2
aI1
aI0
aI2
aI0
aI2
aI2
aI2
aI2
aI2
aI0
aa(lp382
I1
aI1
aI0
aI1
aI0
aI0
aI1
aI0
aI0
aI1
aI1
aI2
aI0
aI1
aI0
aI0
aa(lp383
I1
aI1
aI2
aI1
aI2
aI2
aI2
aI2
aI2
aI2
aI1
aI1
aI0
aI1
aI2
aI2
aa(lp384
I1
aI2
aI0
aI2
aI2
aI2
aI1
aI1
aI2
aI2
aI2
aI0
aI2
aI2
aI2
aI0
aa(lp385
I2
aI1
aI1
aI2
aI2
aI2
aI1
aI2
aI2
aI2
aI2
aI1
aI0
aI1
aI1
aI1
aa(lp386
I0
aI1
aI0
aI1
aI0
aI0
aI2
aI0
aI1
aI0
aI0
aI2
aI0
aI1
aI1
aI0
aa(lp387
I2
aI2
aI0
aI1
aI0
aI2
aI2
aI1
aI2
aI2
aI2
aI2
aI2
aI1
aI2
aI2
aa(lp388
I2
aI0
aI0
aI0
aI1
aI0
aI1
aI0
aI0
aI0
aI1
aI0
aI0
aI0
aI1
aI1
aa(lp389
I1
aI2
aI1
aI1
aI2
aI0
aI2
aI2
aI2
aI0
aI2
aI2
aI2
aI2
aI1
aI2
aa(lp390
I0
aI1
aI0
aI1
aI0
aI0
aI0
aI0
aI0
aI0
aI1
aI0
aI0
aI1
aI1
aI2
aa(lp391
I0
aI2
aI0
aI0
aI0
aI0
aI0
aI0
aI2
aI1
aI0
aI0
aI0
aI2
aI0
aI2
aa(lp392
I1
aI1
aI1
aI0
aI2
aI0
aI0
aI0
aI1
aI0
aI0
aI2
aI0
aI1
aI0
aI0
aa(lp393
I0
aI0
aI0
aI0
aI0
aI2
aI0
aI1
aI0
aI0
aI0
aI0
aI0
aI2
aI1
aI1
aa(lp394
I0
aI0
aI1
aI0
aI0
aI0
aI2
aI0
aI1
aI0
aI0
aI1
aI0
aI0
aI2
aI1
aa(lp395
I0
aI0
aI2
aI0
aI0
aI0
aI1
aI1
aI0
aI0
aI0
aI1
aI2
aI1
aI0
aI0
aa(lp396
I2
aI2
aI2
aI0
aI1
aI2
aI0
aI2
aI2
aI2
aI2
aI1
aI2
aI2
aI0
aI2
aa(lp397
I0
aI0
aI0
aI0
aI0
aI0
aI1
aI2
aI1
aI2
aI2
aI0
aI0
aI1
aI0
aI0
aa(lp398
I1
aI2
aI2
aI2
aI1
aI1
aI1
aI2
aI2
aI2
aI1
aI1
aI2
aI2
aI1
aI2
aa(lp399
I1
aI0
aI2
aI0
aI0
aI2
aI1
aI0
aI0
aI1
aI0
aI0
aI0
aI1
aI0
aI0
aa(lp400
I1
aI1
aI0
aI0
aI0
aI0
aI2
aI1
aI1
aI0
aI0
aI0
aI0
aI0
aI0
aI0
aa(lp401
I1
aI0
aI0
aI0
aI0
aI0
aI1
aI0
aI0
aI0
aI1
aI0
aI2
aI0
aI0
aI2
aa(lp402
I0
aI1
aI0
aI0
aI0
aI1
aI0
aI1
aI0
aI0
aI0
aI1
aI1
aI1
aI0
aI2
aa(lp403
I1
aI1
aI0
aI0
aI1
aI1
aI0
aI0
aI0
aI0
aI0
aI1
aI0
aI2
aI1
aI0
aa(lp404
I0
aI0
aI0
aI0
aI0
aI1
aI0
aI0
aI1
aI1
aI1
aI0
aI2
aI0
aI0
aI0
aa(lp405
I2
aI2
aI2
aI2
aI2
aI2
aI2
aI0
aI2
aI2
aI0
aI1
aI2
aI0
aI2
aI2
aa(lp406
I0
aI0
aI0
aI1
aI1
aI0
aI2
aI0
aI2
aI0
aI1
aI0
aI0
aI1
aI0
aI0
aa(lp407
I1
aI1
aI2
aI2
aI2
aI2
aI2
aI2
aI1
aI2
aI2
aI1
aI1
aI1
aI2
aI1
aa(lp408
I2
aI0
aI0
aI1
aI1
aI0
aI0
aI0
aI0
aI0
aI1
aI0
aI0
aI0
aI0
aI2
aa(lp409
I0
aI0
aI1
aI0
aI0
aI0
aI1
aI0
aI0
aI1
aI2
aI1
aI0
aI0
aI0
aI2
aa(lp410
I0
aI2
aI0
aI1
aI0
aI1
aI0
aI0
aI0
aI1
aI1
aI1
aI0
aI1
aI0
aI0
aa(lp411
I2
aI2
aI1
aI2
aI2
aI1
aI2
aI2
aI2
aI0
aI2
aI1
aI2
aI2
aI2
aI1
aa(lp412
I1
aI0
aI1
aI0
aI2
aI0
aI0
aI1
aI0
aI0
aI1
aI0
aI0
aI0
aI1
aI0
aa(lp413
I0
aI1
aI0
aI0
aI1
aI1
aI0
aI0
aI2
aI1
aI0
aI1
aI0
aI0
aI0
aI0
aa(lp414
I2
aI2
aI2
aI2
aI1
aI2
aI1
aI0
aI2
aI2
aI2
aI1
aI1
aI1
aI2
aI1
aa(lp415
I0
aI2
aI2
aI1
aI2
aI2
aI1
aI0
aI1
aI2
aI2
aI1
aI2
aI2
aI2
aI2
aa(lp416
I2
aI2
aI0
aI1
aI2
aI2
aI2
aI2
aI2
aI1
aI1
aI0
aI2
aI1
aI2
aI2
aa(lp417
I0
aI0
aI1
aI0
aI0
aI2
aI1
aI0
aI0
aI0
aI0
aI1
aI1
aI0
aI1
aI0
aa(lp418
I1
aI0
aI0
aI0
aI0
aI0
aI2
aI2
aI1
aI0
aI0
aI0
aI0
aI1
aI0
aI0
aa(lp419
I0
aI0
aI1
aI1
aI1
aI1
aI2
aI0
aI0
aI0
aI0
aI0
aI0
aI1
aI0
aI0
aa(lp420
I0
aI2
aI0
aI2
aI1
aI1
aI2
aI2
aI2
aI2
aI2
aI2
aI1
aI2
aI1
aI2
aa(lp421
I2
aI1
aI2
aI1
aI2
aI2
aI2
aI0
aI0
aI2
aI1
aI2
aI2
aI2
aI2
aI1
aa(lp422
I0
aI1
aI1
aI0
aI0
aI0
aI0
aI1
aI1
aI1
aI0
aI0
aI1
aI0
aI1
aI0
aa(lp423
I2
aI2
aI2
aI2
aI2
aI1
aI1
aI2
aI2
aI1
aI1
aI2
aI2
aI1
aI2
aI1
aa(lp424
I1
aI2
aI2
aI2
aI1
aI1
aI2
aI2
aI2
aI1
aI2
aI2
aI2
aI0
aI2
aI1
aa(lp425
I0
aI0
aI1
aI0
aI0
aI0
aI0
aI0
aI0
aI0
aI0
aI0
aI1
aI0
aI2
aI1
aa(lp426
I0
aI0
aI0
aI1
aI1
aI1
aI0
aI2
aI1
aI0
aI0
aI1
aI0
aI0
aI0
aI0
aa(lp427
I1
aI0
aI0
aI0
aI1
aI0
aI0
aI0
aI0
aI0
aI0
aI1
aI0
aI2
aI0
aI2
aa(lp428
I2
aI1
aI2
aI2
aI0
aI1
aI1
aI1
aI2
aI2
aI1
aI2
aI2
aI2
aI2
aI2
aa(lp429
I0
aI0
aI0
aI2
aI0
aI2
aI0
aI0
aI0
aI0
aI1
aI1
aI1
aI0
aI0
aI0
aa(lp430
I1
aI2
aI0
aI0
aI0
aI0
aI2
aI0
aI0
aI0
aI0
aI0
aI0
aI0
aI1
aI1
aa(lp431
I2
aI1
aI2
aI2
aI2
aI1
aI1
aI2
aI2
aI2
aI2
aI2
aI1
aI0
aI0
aI2
aa(lp432
I1
aI1
aI2
aI2
aI2
aI2
aI2
aI0
aI2
aI2
aI2
aI1
aI0
aI2
aI2
aI1
aa(lp433
I1
aI2
aI0
aI0
aI0
aI0
aI0
aI0
aI0
aI1
aI0
aI0
aI1
aI0
aI0
aI1
aa(lp434
I1
aI2
aI1
aI1
aI2
aI2
aI2
aI2
aI2
aI1
aI1
aI2
aI0
aI1
aI2
aI2
aa(lp435
I2
aI1
aI0
aI0
aI0
aI0
aI0
aI0
aI0
aI0
aI0
aI1
aI0
aI0
aI0
aI0
aa(lp436
I0
aI2
aI0
aI2
aI1
aI2
aI2
aI2
aI2
aI2
aI2
aI2
aI0
aI2
aI2
aI1
aa(lp437
I2
aI0
aI1
aI2
aI1
aI2
aI2
aI2
aI2
aI2
aI2
aI1
aI1
aI2
aI2
aI0
aa(lp438
I1
aI0
aI0
aI0
aI0
aI0
aI2
aI0
aI0
aI1
aI1
aI0
aI0
aI0
aI1
aI0
aa(lp439
I0
aI2
aI0
aI0
aI0
aI0
aI1
aI0
aI1
aI0
aI0
aI0
aI0
aI0
aI0
aI2
aa(lp440
I2
aI2
aI2
aI1
aI2
aI2
aI2
aI2
aI2
aI2
aI1
aI2
aI0
aI1
aI0
aI2
aa(lp441
I1
aI1
aI2
aI1
aI1
aI1
aI1
aI2
aI2
aI2
aI1
aI2
aI2
aI2
aI2
aI2
aa(lp442
I2
aI2
aI2
aI2
aI1
aI2
aI2
aI2
aI0
aI1
aI2
aI0
aI2
aI2
aI2
aI2
aa(lp443
I0
aI0
aI0
aI0
aI0
aI2
aI0
aI0
aI2
aI1
aI0
aI0
aI0
aI0
aI0
aI0
aa(lp444
I2
aI2
aI2
aI2
aI2
aI2
aI1
aI1
aI1
aI2
aI2
aI1
aI2
aI2
aI2
aI0
aa(lp445
I2
aI2
aI2
aI2
aI1
aI0
aI1
aI2
aI2
aI2
aI2
aI2
aI1
aI2
aI2
aI1
aa(lp446
I2
aI1
aI1
aI1
aI1
aI1
aI2
aI2
aI2
aI2
aI2
aI2
aI1
aI2
aI1
aI2
aa(lp447
I0
aI1
aI1
aI2
aI2
aI2
aI2
aI2
aI2
aI1
aI2
aI2
aI2
aI2
aI2
aI2
aa(lp448
I2
aI2
aI1
aI2
aI2
aI1
aI2
aI1
aI2
aI2
aI2
aI0
aI2
aI2
aI1
aI1
aa(lp449
I2
aI1
aI2
aI2
aI1
aI1
aI2
aI2
aI2
aI2
aI2
aI1
aI0
aI1
aI2
aI2
aa(lp450
I2
aI2
aI2
aI2
aI0
aI2
aI2
aI2
aI1
aI2
aI0
aI2
aI1
aI1
aI2
aI2
aa(lp451
I2
aI1
aI2
aI2
aI2
aI0
aI2
aI1
aI2
aI2
aI1
aI2
aI2
aI2
aI0
aI2
aa(lp452
I2
aI1
aI2
aI2
aI2
aI2
aI2
aI2
aI1
aI2
aI2
aI1
aI0
aI2
aI2
aI0
aa(lp453
I1
aI2
aI2
aI2
aI2
aI2
aI0
aI2
aI2
aI2
aI1
aI1
aI2
aI2
aI1
aI1
aa(lp454
I1
aI2
aI0
aI0
aI0
aI0
aI1
aI0
aI0
aI0
aI1
aI0
aI0
aI0
aI0
aI1
aa(lp455
I1
aI0
aI0
aI0
aI1
aI0
aI0
aI0
aI0
aI0
aI1
aI0
aI0
aI0
aI1
aI1
aa(lp456
I2
aI2
aI1
aI2
aI2
aI2
aI2
aI1
aI2
aI1
aI1
aI1
aI2
aI1
aI2
aI2
aa(lp457
I2
aI2
aI2
aI2
aI1
aI2
aI0
aI2
aI1
aI2
aI2
aI2
aI2
aI1
aI0
aI2
aa(lp458
I2
aI2
aI2
aI2
aI2
aI2
aI2
aI1
aI1
aI1
aI2
aI2
aI1
aI0
aI2
aI2
aa(lp459
I0
aI0
aI0
aI0
aI1
aI1
aI1
aI0
aI1
aI0
aI1
aI0
aI0
aI0
aI0
aI0
aa(lp460
I2
aI2
aI2
aI0
aI1
aI1
aI1
aI1
aI2
aI2
aI1
aI2
aI2
aI2
aI2
aI2
aa(lp461
I2
aI2
aI2
aI2
aI1
aI2
aI0
aI2
aI2
aI2
aI2
aI2
aI0
aI2
aI1
aI1
aa(lp462
I2
aI0
aI2
aI0
aI2
aI2
aI2
aI2
aI0
aI2
aI2
aI2
aI2
aI1
aI2
aI2
aa(lp463
I0
aI1
aI2
aI2
aI2
aI2
aI1
aI2
aI2
aI2
aI2
aI2
aI1
aI2
aI2
aI2
aa(lp464
I2
aI2
aI2
aI2
aI2
aI1
aI1
aI1
aI1
aI2
aI2
aI2
aI2
aI1
aI1
aI2
aa(lp465
I2
aI2
aI2
aI2
aI2
aI2
aI2
aI0
aI1
aI2
aI2
aI2
aI2
aI1
aI1
aI0
aa(lp466
I0
aI0
aI1
aI0
aI1
aI0
aI0
aI0
aI2
aI0
aI0
aI0
aI0
aI0
aI2
aI0
aa(lp467
I2
aI2
aI2
aI1
aI2
aI2
aI1
aI2
aI2
aI2
aI2
aI1
aI1
aI1
aI1
aI2
aa(lp468
I1
aI2
aI1
aI2
aI2
aI2
aI1
aI2
aI0
aI2
aI2
aI2
aI1
aI2
aI2
aI2
aa(lp469
I0
aI2
aI1
aI2
aI1
aI2
aI2
aI2
aI2
aI2
aI2
aI2
aI2
aI2
aI1
aI1
aa(lp470
I0
aI0
aI2
aI0
aI0
aI1
aI0
aI0
aI0
aI0
aI0
aI1
aI0
aI1
aI0
aI0
aa(lp471
I2
aI2
aI2
aI2
aI1
aI1
aI1
aI2
aI2
aI1
aI1
aI1
aI2
aI2
aI2
aI2
aa(lp472
I1
aI0
aI2
aI2
aI2
aI2
aI2
aI2
aI2
aI1
aI2
aI2
aI2
aI2
aI0
aI2
aa(lp473
I1
aI0
aI0
aI1
aI0
aI0
aI1
aI1
aI0
aI0
aI0
aI0
aI0
aI1
aI0
aI0
aa(lp474
I2
aI2
aI2
aI2
aI1
aI1
aI1
aI2
aI2
aI2
aI2
aI1
aI1
aI2
aI2
aI2
aa(lp475
I0
aI1
aI0
aI2
aI1
aI0
aI0
aI0
aI0
aI0
aI1
aI0
aI0
aI1
aI0
aI0
aa(lp476
I1
aI1
aI2
aI2
aI2
aI2
aI2
aI2
aI0
aI2
aI2
aI1
aI2
aI2
aI1
aI2
aa(lp477
I1
aI0
aI0
aI1
aI0
aI1
aI0
aI0
aI1
aI0
aI0
aI0
aI1
aI1
aI0
aI0
aa(lp478
I2
aI2
aI0
aI2
aI2
aI2
aI2
aI2
aI2
aI1
aI2
aI1
aI2
aI0
aI2
aI2
aa(lp479
I2
aI2
aI2
aI2
aI2
aI2
aI1
aI2
aI2
aI2
aI2
aI1
aI1
aI1
aI2
aI2
aa(lp480
I0
aI0
aI0
aI0
aI0
aI0
aI0
aI0
aI0
aI1
aI0
aI0
aI0
aI1
aI0
aI1
aa(lp481
I2
aI2
aI2
aI2
aI2
aI2
aI2
aI2
aI1
aI0
aI2
aI1
aI2
aI2
aI2
aI2
aa(lp482
I2
aI1
aI0
aI0
aI1
aI0
aI0
aI0
aI1
aI1
aI0
aI0
aI0
aI0
aI0
aI0
aa(lp483
I2
aI0
aI2
aI2
aI2
aI2
aI2
aI0
aI2
aI2
aI2
aI2
aI1
aI1
aI2
aI2
aa(lp484
I0
aI0
aI0
aI0
aI0
aI1
aI1
aI0
aI2
aI0
aI0
aI0
aI1
aI0
aI0
aI0
aa(lp485
I0
aI2
aI0
aI1
aI1
aI0
aI0
aI1
aI0
aI1
aI0
aI0
aI0
aI0
aI0
aI0
aa(lp486
I1
aI0
aI0
aI0
aI2
aI0
aI0
aI1
aI1
aI0
aI0
aI0
aI0
aI0
aI0
aI1
aa(lp487
I2
aI2
aI2
aI2
aI1
aI2
aI2
aI1
aI1
aI1
aI2
aI2
aI2
aI1
aI2
aI1
aa(lp488
I0
aI0
aI0
aI1
aI1
aI0
aI0
aI1
aI0
aI0
aI0
aI1
aI0
aI1
aI1
aI0
aa(lp489
I0
aI1
aI0
aI0
aI1
aI0
aI1
aI0
aI0
aI1
aI1
aI1
aI0
aI0
aI0
aI0
aa(lp490
I0
aI0
aI0
aI0
aI1
aI0
aI1
aI1
aI0
aI1
aI0
aI1
aI1
aI0
aI0
aI0
aa(lp491
I0
aI1
aI2
aI1
aI0
aI0
aI0
aI0
aI0
aI1
aI0
aI0
aI0
aI1
aI0
aI0
aa(lp492
I2
aI0
aI2
aI1
aI2
aI2
aI2
aI1
aI2
aI2
aI1
aI2
aI2
aI2
aI2
aI1
aa(lp493
I0
aI1
aI0
aI0
aI0
aI0
aI0
aI1
aI2
aI0
aI0
aI0
aI0
aI0
aI0
aI1
aa(lp494
I2
aI0
aI2
aI2
aI2
aI2
aI2
aI2
aI2
aI2
aI0
aI2
aI1
aI2
aI1
aI2
aa(lp495
I2
aI2
aI2
aI1
aI2
aI2
aI1
aI2
aI2
aI2
aI0
aI1
aI2
aI2
aI2
aI1
aa(lp496
I2
aI2
aI2
aI1
aI2
aI2
aI1
aI2
aI1
aI2
aI2
aI1
aI2
aI1
aI2
aI2
aa(lp497
I0
aI1
aI0
aI1
aI0
aI0
aI1
aI0
aI0
aI1
aI0
aI2
aI0
aI0
aI0
aI0
aa(lp498
I0
aI0
aI0
aI1
aI0
aI0
aI0
aI0
aI1
aI0
aI0
aI0
aI2
aI0
aI1
aI0
aa(lp499
I1
aI2
aI1
aI1
aI2
aI2
aI2
aI2
aI1
aI2
aI2
aI2
aI2
aI2
aI1
aI2
aa(lp500
I1
aI0
aI0
aI0
aI0
aI1
aI1
aI1
aI0
aI0
aI0
aI0
aI0
aI0
aI1
aI1
aa(lp501
I1
aI0
aI0
aI0
aI1
aI0
aI0
aI0
aI0
aI0
aI2
aI0
aI1
aI0
aI0
aI1
aa.