(lp1
(lp2
I0
aI0
aI0
aI0
aI0
aI0
aI0
aI0
aI0
aI0
aI0
aI0
aI0
aI0
aI0
aI0
aI0
aa(lp3
I1
aI1
aI1
aI1
aI1
aI1
aI1
aI1
aI1
aI1
aI1
aI1
aI1
aI1
aI1
aI1
aI1
aa(lp4
I2
aI2
aI2
aI2
aI2
aI2
aI2
aI2
aI2
aI2
aI2
aI2
aI2
aI2
aI2
aI2
aI2
aa(lp5
I2
aI0
aI1
aI2
aI2
aI2
aI1
aI1
aI0
aI1
aI0
aI1
aI1
aI0
aI2
aI0
aI1
aa(lp6
I1
aI2
aI1
aI2
aI0
aI2
aI1
aI1
aI1
aI1
aI1
aI1
aI0
aI2
aI0
aI2
aI1
aa(lp7
I1
aI2
aI2
aI0
aI0
aI0
aI1
aI0
aI1
aI0
aI1
aI2
aI1
aI1
aI2
aI2
aI1
aa(lp8
I1
aI2
aI0
aI2
aI0
aI2
aI0
aI0
aI0
aI1
aI2
aI0
aI0
aI0
aI2
aI1
aI2
aa(lp9
I1
aI1
aI0
aI0
aI0
aI2
aI1
aI2
aI0
aI0
aI2
aI0
aI2
aI2
aI1
aI1
aI1
aa(lp10
I2
aI0
aI1
aI1
aI2
aI1
aI0
aI0
aI0
aI0
aI1
aI1
aI1
aI1
aI2
aI0
aI0
aa(lp11
I2
aI0
aI2
aI0
aI2
aI0
aI2
aI2
aI1
aI1
aI2
aI2
aI1
aI2
aI2
aI1
aI2
aa(lp12
I1
aI1
aI0
aI1
aI2
aI2
aI2
aI1
aI0
aI2
aI0
aI0
aI2
aI1
aI2
aI2
aI2
aa(lp13
I0
aI2
aI0
aI0
aI0
aI1
aI1
aI0
aI0
aI0
aI0
aI0
aI0
aI1
aI1
aI1
aI2
aa(lp14
I0
aI2
aI0
aI2
aI2
aI2
aI1
aI2
aI0
aI0
aI0
aI0
aI2
aI1
aI0
aI2
aI2
aa(lp15
I1
aI2
aI1
aI1
aI1
aI2
aI2
aI1
aI1
aI0
aI0
aI1
aI1
aI0
aI1
aI1
aI0
aa(lp16
I0
aI2
aI1
aI2
aI0
aI2
aI0
aI0
aI0
aI1
aI2
aI0
aI1
aI0
aI0
aI1
aI1
aa(lp17
I1
aI1
aI2
aI1
aI0
aI0
aI2
aI2
aI2
aI0
aI1
aI1
aI1
aI2
aI0
aI0
aI1
aa(lp18
I0
aI2
aI2
aI2
aI0
aI0
aI1
aI2
aI2
aI2
aI0
aI1
aI1
aI1
aI0
aI1
aI1
aa(lp19
I1
aI2
aI0
aI0
aI2
aI2
aI1
aI2
aI2
aI0
aI2
aI1
aI2
aI0
aI1
aI0
aI2
aa(lp20
I0
aI0
aI2
aI1
aI2
aI0
aI2
aI0
aI2
aI0
aI2
aI2
aI1
aI0
aI1
aI2
aI0
aa(lp21
I2
aI1
aI2
aI2
aI1
aI0
aI0
aI2
aI2
aI1
aI0
aI1
aI2
aI2
aI0
aI0
aI1
aa(lp22
I0
aI0
aI2
aI0
aI0
aI1
aI0
aI1
aI2
aI0
aI0
aI1
aI0
aI2
aI2
aI0
aI0
aa(lp23
I2
aI1
aI2
aI1
aI2
aI0
aI1
aI0
aI2
aI0
aI2
aI0
aI1
aI0
aI1
aI2
aI0
aa(lp24
I1
aI1
aI2
aI0
aI1
aI0
aI2
aI2
aI0
aI2
aI2
aI0
aI0
aI2
aI0
aI1
aI0
aa(lp25
I0
aI2
aI0
aI2
aI0
aI1
aI2
aI0
aI2
aI2
aI0
aI0
aI0
aI0
aI2
aI0
aI0
aa(lp26
I0
aI1
aI2
aI2
aI0
aI1
aI1
aI1
aI0
aI1
aI0
aI0
aI0
aI2
aI0
aI0
aI0
aa(lp27
I1
aI0
aI2
aI2
aI2
aI2
aI0
aI2
aI0
aI1
aI2
aI0
aI1
aI1
aI0
aI1
aI0
aa(lp28
I2
aI2
aI1
aI0
aI0
aI1
aI2
aI2
aI2
aI2
aI1
aI1
aI1
aI0
aI0
aI1
aI1
aa(lp29
I0
aI1
aI0
aI2
aI0
aI1
aI0
aI1
aI0
aI1
aI0
aI1
aI0
aI1
aI1
aI0
aI0
aa(lp30
I0
aI2
aI0
aI0
aI0
aI1
aI0
aI2
aI1
aI2
aI0
aI1
aI2
aI1
aI2
aI2
aI2
aa(lp31
I1
aI1
aI0
aI2
aI0
aI2
aI0
aI2
aI1
aI1
aI1
aI0
aI1
aI1
aI2
aI1
aI0
aa(lp32
I1
aI1
aI1
aI2
aI2
aI1
aI1
aI1
aI1
aI2
aI0
aI1
aI2
aI0
aI0
aI2
aI2
aa(lp33
I2
aI0
aI1
aI1
aI0
aI0
aI1
aI2
aI2
aI2
aI0
aI1
aI1
aI2
aI0
aI1
aI2
aa(lp34
I2
aI0
aI1
aI0
aI0
aI2
aI1
aI0
aI2
aI2
aI1
aI1
aI0
aI2
aI2
aI2
aI1
aa(lp35
I2
aI0
aI1
aI2
aI2
aI0
aI2
aI1
aI1
aI1
aI0
aI0
aI0
aI2
aI0
aI0
aI0
aa(lp36
I1
aI1
aI2
aI0
aI2
aI2
aI1
aI0
aI2
aI2
aI0
aI0
aI2
aI1
aI0
aI0
aI1
aa(lp37
I1
aI1
aI1
aI0
aI0
aI2
aI0
aI0
aI0
aI2
aI2
aI1
aI1
aI0
aI1
aI0
aI1
aa(lp38
I0
aI0
aI2
aI1
aI1
aI0
aI1
aI2
aI1
aI0
aI2
aI1
aI2
aI2
aI2
aI1
aI2
aa(lp39
I1
aI1
aI0
aI1
aI1
aI1
aI0
aI0
aI1
aI0
aI2
aI0
aI1
aI2
aI0
aI0
aI2
aa(lp40
I2
aI0
aI0
aI1
aI1
aI2
aI0
aI0
aI0
aI0
aI1
aI2
aI1
aI1
aI1
aI0
aI1
aa(lp41
I0
aI1
aI2
aI0
aI0
aI1
aI1
aI1
aI0
aI2
aI2
aI2
aI0
aI2
aI1
aI2
aI2
aa(lp42
I0
aI1
aI1
aI0
aI1
aI1
aI1
aI1
aI0
aI1
aI0
aI0
aI1
aI1
aI0
aI2
aI1
aa(lp43
I0
aI2
aI2
aI2
aI2
aI2
aI1
aI2
aI1
aI2
aI1
aI2
aI1
aI1
aI0
aI0
aI1
aa(lp44
I2
aI0
aI2
aI0
aI1
aI0
aI2
aI2
aI0
aI0
aI1
aI1
aI0
aI2
aI2
aI0
aI0
aa(lp45
I1
aI1
aI1
aI2
aI0
aI0
aI0
aI1
aI2
aI0
aI1
aI2
aI0
aI0
aI0
aI2
aI0
aa(lp46
I1
aI1
aI2
aI0
aI2
aI2
aI2
aI1
aI1
aI2
aI2
aI2
aI2
aI2
aI0
aI2
aI2
aa(lp47
I1
aI1
aI1
aI1
aI2
aI1
aI2
aI1
aI2
aI1
aI2
aI2
aI2
aI1
aI2
aI1
aI0
aa(lp48
I1
aI1
aI1
aI1
aI1
aI0
aI0
aI1
aI2
aI1
aI0
aI1
aI1
aI1
aI2
aI0
aI0
aa(lp49
I2
aI1
aI0
aI0
aI1
aI1
aI2
aI0
aI0
aI1
aI0
aI1
aI0
aI1
aI2
aI2
aI0
aa(lp50
I2
aI1
aI0
aI0
aI1
aI1
aI0
aI0
aI0
aI0
aI0
aI0
aI2
aI0
aI2
aI1
aI0
aa(lp51
I2
aI1
aI0
aI2
aI2
aI2
aI0
aI0
aI2
aI1
aI0
aI2
aI2
aI1
aI0
aI2
aI2
aa(lp52
I1
aI1
aI1
aI0
aI2
aI0
aI2
aI0
aI1
aI1
aI1
aI2
aI2
aI0
aI2
aI0
aI1
aa(lp53
I2
aI1
aI1
aI0
aI1
aI2
aI0
aI2
aI1
aI2
aI1
aI0
aI2
aI2
aI1
aI1
aI1
aa(lp54
I2
aI2
aI0
aI2
aI2
aI2
aI0
aI2
aI0
aI2
aI2
aI0
aI1
aI2
aI1
aI2
aI2
aa(lp55
I2
aI0
aI2
aI1
aI1
aI1
aI1
aI0
aI2
aI2
aI1
aI2
aI0
aI2
aI1
aI0
aI1
aa(lp56
I0
aI0
aI2
aI0
aI1
aI1
aI1
aI1
aI2
aI2
aI0
aI1
aI2
aI1
aI0
aI1
aI0
aa(lp57
I0
aI1
aI1
aI2
aI0
aI1
aI1
aI2
aI0
aI1
aI0
aI1
aI2
aI1
aI0
aI1
aI2
aa(lp58
I2
aI1
aI1
aI2
aI1
aI1
aI0
aI0
aI2
aI0
aI2
aI0
aI0
aI0
aI1
aI2
aI1
aa(lp59
I0
aI0
aI2
aI0
aI0
aI2
aI1
aI1
aI0
aI2
aI1
aI0
aI0
aI1
aI2
aI1
aI1
aa(lp60
I2
aI1
aI0
aI1
aI0
aI1
aI1
aI1
aI2
aI1
aI0
aI1
aI2
aI2
aI1
aI2
aI0
aa(lp61
I1
aI0
aI2
aI0
aI1
aI1
aI2
aI1
aI2
aI2
aI1
aI0
aI0
aI0
aI1
aI1
aI2
aa(lp62
I1
aI0
aI0
aI1
aI0
aI2
aI0
aI1
aI2
aI0
aI0
aI0
aI1
aI2
aI0
aI2
aI1
aa(lp63
I2
aI1
aI0
aI2
aI0
aI1
aI0
aI2
aI2
aI0
aI2
aI1
aI1
aI2
aI0
aI2
aI0
aa(lp64
I0
aI1
aI2
aI1
aI2
aI0
aI0
aI0
aI1
aI0
aI0
aI1
aI0
aI1
aI0
aI2
aI1
aa(lp65
I1
aI2
aI1
aI0
aI1
aI0
aI2
aI0
aI0
aI0
aI1
aI1
aI0
aI0
aI1
aI2
aI0
aa(lp66
I2
aI1
aI1
aI1
aI1
aI1
aI0
aI2
aI0
aI2
aI1
aI0
aI2
aI1
aI1
aI2
aI2
aa(lp67
I2
aI1
aI2
aI1
aI0
aI2
aI0
aI0
aI2
aI2
aI1
aI2
aI2
aI0
aI2
aI1
aI2
aa(lp68
I1
aI0
aI1
aI2
aI1
aI1
aI1
aI2
aI1
aI1
aI0
aI2
aI0
aI0
aI1
aI2
aI2
aa(lp69
I0
aI0
aI2
aI0
aI2
aI1
aI1
aI1
aI0
aI0
aI1
aI1
aI1
aI1
aI0
aI2
aI0
aa(lp70
I2
aI2
aI1
aI2
aI1
aI1
aI1
aI0
aI2
aI2
aI0
aI0
aI0
aI1
aI2
aI2
aI2
aa(lp71
I2
aI1
aI2
aI0
aI0
aI0
aI0
aI2
aI2
aI1
aI1
aI0
aI0
aI2
aI2
aI2
aI1
aa(lp72
I2
aI1
aI2
aI2
aI1
aI1
aI0
aI0
aI2
aI1
aI2
aI0
aI0
aI2
aI0
aI0
aI2
aa(lp73
I0
aI1
aI2
aI2
aI2
aI1
aI2
aI1
aI1
aI2
aI0
aI0
aI0
aI0
aI0
aI0
aI1
aa(lp74
I2
aI2
aI0
aI2
aI2
aI1
aI2
aI2
aI0
aI0
aI0
aI1
aI2
aI2
aI2
aI1
aI1
aa(lp75
I0
aI1
aI1
aI0
aI0
aI2
aI2
aI0
aI2
aI0
aI0
aI0
aI0
aI1
aI1
aI2
aI0
aa(lp76
I2
aI2
aI1
aI1
aI2
aI1
aI0
aI2
aI2
aI2
aI1
aI0
aI0
aI0
aI1
aI2
aI0
aa(lp77
I1
aI0
aI2
aI1
aI1
aI1
aI2
aI0
aI0
aI2
aI1
aI1
aI1
aI2
aI0
aI1
aI0
aa(lp78
I0
aI2
aI0
aI2
aI1
aI2
aI0
aI2
aI0
aI0
aI0
aI2
aI0
aI2
aI2
aI1
aI1
aa(lp79
I2
aI2
aI2
aI0
aI1
aI2
aI1
aI2
aI2
aI0
aI1
aI2
aI2
aI2
aI2
aI0
aI2
aa(lp80
I2
aI1
aI0
aI1
aI2
aI0
aI2
aI0
aI2
aI1
aI1
aI0
aI0
aI0
aI0
aI2
aI2
aa(lp81
I1
aI2
aI1
aI0
aI0
aI1
aI2
aI0
aI1
aI1
aI0
aI1
aI1
aI0
aI0
aI0
aI2
aa(lp82
I2
aI2
aI0
aI1
aI0
aI2
aI2
aI2
aI2
aI2
aI0
aI0
aI1
aI0
aI2
aI2
aI2
aa(lp83
I0
aI2
aI1
aI1
aI1
aI2
aI0
aI2
aI0
aI0
aI0
aI1
aI0
aI0
aI0
aI2
aI0
aa(lp84
I2
aI1
aI0
aI1
aI1
aI0
aI1
aI2
aI2
aI2
aI1
aI0
aI1
aI2
aI1
aI0
aI0
aa(lp85
I2
aI0
aI0
aI1
aI0
aI0
aI2
aI0
aI1
aI0
aI1
aI1
aI0
aI2
aI0
aI1
aI1
aa(lp86
I2
aI2
aI0
aI0
aI1
aI1
aI0
aI2
aI2
aI0
aI1
aI0
aI2
aI1
aI0
aI0
aI0
aa(lp87
I1
aI0
aI2
aI1
aI1
aI0
aI0
aI1
aI0
aI1
aI0
aI1
aI1
aI1
aI1
aI0
aI1
aa(lp88
I1
aI2
aI2
aI0
aI2
aI1
aI0
aI2
aI0
aI2
aI0
aI2
aI1
aI2
aI1
aI0
aI0
aa(lp89
I2
aI2
aI0
aI2
aI0
aI0
aI2
aI2
aI1
aI2
aI0
aI1
aI2
aI2
aI1
aI2
aI0
aa(lp90
I2
aI1
aI2
aI2
aI0
aI0
aI0
aI1
aI0
aI0
aI0
aI1
aI1
aI2
aI1
aI2
aI2
aa(lp91
I0
aI0
aI0
aI2
aI2
aI2
aI1
aI1
aI0
aI1
aI1
aI1
aI2
aI1
aI2
aI0
aI0
aa(lp92
I0
aI1
aI0
aI2
aI0
aI2
aI1
aI2
aI1
aI0
aI0
aI0
aI2
aI0
aI1
aI1
aI2
aa(lp93
I1
aI0
aI0
aI1
aI2
aI1
aI0
aI1
aI1
aI1
aI2
aI1
aI0
aI0
aI2
aI0
aI1
aa(lp94
I0
aI1
aI0
aI0
aI0
aI0
aI1
aI1
aI1
aI1
aI1
aI2
aI2
aI0
aI0
aI2
aI2
aa(lp95
I1
aI0
aI2
aI2
aI0
aI2
aI2
aI1
aI1
aI1
aI1
aI2
aI1
aI1
aI0
aI2
aI0
aa(lp96
I1
aI1
aI1
aI0
aI1
aI1
aI2
aI2
aI2
aI1
aI0
aI1
aI0
aI2
aI0
aI1
aI0
aa(lp97
I2
aI2
aI0
aI2
aI2
aI0
aI1
aI2
aI1
aI0
aI2
aI2
aI1
aI2
aI2
aI2
aI1
aa(lp98
I1
aI0
aI1
aI0
aI0
aI0
aI0
aI0
aI0
aI1
aI0
aI1
aI1
aI2
aI1
aI2
aI2
aa(lp99
I2
aI0
aI1
aI1
aI1
aI1
aI1
aI1
aI1
aI1
aI2
aI0
aI1
aI0
aI0
aI0
aI0
aa(lp100
I2
aI2
aI2
aI2
aI0
aI1
aI1
aI0
aI0
aI0
aI2
aI2
aI0
aI2
aI2
aI1
aI1
aa(lp101
I0
aI1
aI0
aI1
aI2
aI0
aI0
aI1
aI1
aI2
aI0
aI2
aI1
aI1
aI1
aI0
aI2
aa(lp102
I1
aI2
aI2
aI0
aI0
aI2
aI1
aI2
aI0
aI2
aI1
aI2
aI1
aI2
aI2
aI0
aI0
aa(lp103
I0
aI0
aI0
aI1
aI1
aI1
aI2
aI1
aI0
aI0
aI2
aI1
aI0
aI1
aI0
aI0
aI0
aa(lp104
I0
aI0
aI0
aI0
aI1
aI2
aI1
aI2
aI1
aI1
aI2
aI0
aI2
aI1
aI0
aI0
aI2
aa(lp105
I1
aI0
aI2
aI2
aI0
aI1
aI2
aI0
aI0
aI0
aI1
aI1
aI1
aI0
aI1
aI1
aI1
aa(lp106
I1
aI0
aI0
aI1
aI1
aI2
aI0
aI0
aI1
aI0
aI2
aI2
aI2
aI0
aI0
aI1
aI0
aa(lp107
I2
aI0
aI0
aI1
aI2
aI2
aI1
aI1
aI2
aI0
aI0
aI0
aI0
aI2
aI0
aI2
aI0
aa(lp108
I1
aI2
aI2
aI1
aI1
aI1
aI1
aI1
aI1
aI2
aI0
aI1
aI2
aI1
aI0
aI2
aI2
aa(lp109
I1
aI0
aI1
aI1
aI2
aI0
aI1
aI2
aI2
aI2
aI2
aI1
aI1
aI0
aI1
aI1
aI1
aa(lp110
I0
aI2
aI1
aI2
aI0
aI1
aI1
aI0
aI2
aI0
aI2
aI1
aI1
aI1
aI1
aI2
aI1
aa(lp111
I0
aI0
aI0
aI1
aI2
aI0
aI0
aI1
aI2
aI2
aI2
aI2
aI0
aI0
aI1
aI0
aI2
aa(lp112
I2
aI2
aI1
aI2
aI1
aI1
aI0
aI0
aI0
aI0
aI0
aI0
aI2
aI1
aI0
aI0
aI0
aa(lp113
I2
aI0
aI1
aI0
aI2
aI0
aI2
aI1
aI1
aI0
aI0
aI0
aI1
aI0
aI2
aI0
aI2
aa(lp114
I0
aI0
aI1
aI2
aI0
aI2
aI0
aI1
aI1
aI1
aI0
aI0
aI1
aI2
aI1
aI0
aI1
aa(lp115
I1
aI0
aI1
aI2
aI2
aI2
aI0
aI1
aI2
aI1
aI0
aI1
aI1
aI1
aI2
aI1
aI1
aa(lp116
I2
aI1
aI2
aI0
aI2
aI2
aI2
aI0
aI2
aI0
aI1
aI1
aI2
aI1
aI0
aI1
aI1
aa(lp117
I1
aI1
aI1
aI2
aI1
aI2
aI0
aI1
aI0
aI1
aI0
aI2
aI2
aI1
aI2
aI2
aI0
aa(lp118
I0
aI2
aI0
aI2
aI2
aI0
aI1
aI1
aI2
aI2
aI1
aI0
aI1
aI1
aI1
aI2
aI1
aa(lp119
I0
aI2
aI2
aI0
aI1
aI0
aI2
aI2
aI2
aI1
aI1
aI2
aI0
aI2
aI2
aI0
aI0
aa(lp120
I1
aI1
aI2
aI2
aI1
aI2
aI1
aI0
aI1
aI2
aI2
aI2
aI2
aI2
aI1
aI0
aI0
aa(lp121
I0
aI0
aI1
aI1
aI1
aI1
aI1
aI0
aI0
aI2
aI1
aI1
aI0
aI0
aI1
aI2
aI1
aa(lp122
I1
aI0
aI0
aI2
aI0
aI2
aI1
aI1
aI0
aI2
aI1
aI2
aI2
aI1
aI1
aI1
aI0
aa(lp123
I0
aI2
aI1
aI0
aI0
aI2
aI2
aI0
aI0
aI1
aI1
aI2
aI2
aI2
aI2
aI1
aI0
aa(lp124
I1
aI2
aI0
aI0
aI0
aI2
aI2
aI0
aI1
aI0
aI1
aI1
aI2
aI1
aI2
aI0
aI1
aa(lp125
I2
aI0
aI2
aI0
aI2
aI1
aI1
aI1
aI1
aI2
aI1
aI0
aI1
aI1
aI1
aI1
aI0
aa(lp126
I1
aI2
aI2
aI1
aI1
aI2
aI0
aI2
aI2
aI1
aI2
aI2
aI0
aI2
aI1
aI0
aI0
aa(lp127
I2
aI1
aI1
aI1
aI0
aI0
aI1
aI0
aI1
aI0
aI1
aI0
aI1
aI1
aI2
aI0
aI2
aa(lp128
I2
aI1
aI2
aI1
aI2
aI0
aI1
aI0
aI0
aI1
aI0
aI1
aI2
aI0
aI2
aI0
aI1
aa(lp129
I0
aI0
aI2
aI0
aI1
aI1
aI2
aI2
aI2
aI0
aI1
aI0
aI0
aI0
aI1
aI1
aI0
aa(lp130
I0
aI0
aI0
aI2
aI2
aI0
aI1
aI2
aI2
aI1
aI0
aI1
aI1
aI0
aI2
aI2
aI2
aa(lp131
I0
aI1
aI2
aI0
aI1
aI2
aI2
aI1
aI1
aI1
aI0
aI1
aI2
aI0
aI0
aI0
aI2
aa(lp132
I1
aI1
aI1
aI2
aI0
aI2
aI2
aI1
aI1
aI1
aI2
aI1
aI1
aI2
aI1
aI1
aI2
aa(lp133
I1
aI2
aI2
aI2
aI1
aI0
aI0
aI0
aI0
aI1
aI2
aI1
aI1
aI1
aI0
aI2
aI1
aa(lp134
I2
aI2
aI1
aI1
aI1
aI1
aI2
aI2
aI0
aI2
aI0
aI2
aI0
aI0
aI0
aI2
aI2
aa(lp135
I1
aI1
aI0
aI1
aI1
aI1
aI2
aI1
aI1
aI0
aI2
aI2
aI0
aI1
aI0
aI0
aI0
aa(lp136
I2
aI1
aI2
aI2
aI2
aI2
aI1
aI2
aI0
aI0
aI1
aI2
aI0
aI0
aI0
aI1
aI2
aa(lp137
I1
aI1
aI0
aI1
aI1
aI0
aI0
aI1
aI1
aI1
aI1
aI0
aI1
aI1
aI0
aI1
aI0
aa(lp138
I2
aI0
aI0
aI2
aI0
aI1
aI1
aI0
aI1
aI0
aI2
aI1
aI1
aI1
aI1
aI1
aI0
aa(lp139
I1
aI0
aI0
aI0
aI1
aI1
aI2
aI0
aI1
aI0
aI0
aI1
aI0
aI0
aI1
aI0
aI1
aa(lp140
I2
aI1
aI2
aI2
aI1
aI1
aI1
aI1
aI0
aI1
aI1
aI0
aI1
aI1
aI1
aI1
aI0
aa(lp141
I0
aI0
aI0
aI0
aI0
aI2
aI1
aI1
aI1
aI2
aI2
aI1
aI0
aI2
aI1
aI0
aI2
aa(lp142
I2
aI0
aI0
aI0
aI0
aI1
aI2
aI2
aI1
aI0
aI0
aI1
aI0
aI1
aI0
aI0
aI2
aa(lp143
I1
aI0
aI1
aI0
aI0
aI0
aI2
aI1
aI1
aI0
aI1
aI2
aI1
aI1
aI1
aI0
aI2
aa(lp144
I0
aI0
aI0
aI0
aI1
aI1
aI0
aI2
aI0
aI1
aI2
aI1
aI0
aI1
aI0
aI2
aI1
aa(lp145
I1
aI2
aI1
aI0
aI1
aI2
aI0
aI1
aI2
aI0
aI1
aI0
aI1
aI0
aI0
aI2
aI2
aa(lp146
I2
aI1
aI1
aI0
aI0
aI2
aI1
aI1
aI2
aI0
aI2
aI1
aI0
aI0
aI1
aI2
aI1
aa(lp147
I1
aI1
aI0
aI1
aI1
aI2
aI0
aI0
aI0
aI2
aI0
aI1
aI1
aI0
aI1
aI2
aI1
aa(lp148
I1
aI1
aI1
aI2
aI2
aI1
aI1
aI2
aI1
aI0
aI2
aI0
aI0
aI2
aI2
aI1
aI0
aa(lp149
I1
aI0
aI1
aI1
aI1
aI0
aI0
aI1
aI2
aI1
aI2
aI0
aI1
aI2
aI2
aI2
aI2
aa(lp150
I1
aI0
aI0
aI1
aI0
aI1
aI0
aI1
aI1
aI1
aI2
aI2
aI1
aI2
aI0
aI1
aI0
aa(lp151
I2
aI0
aI2
aI1
aI2
aI2
aI1
aI2
aI1
aI1
aI0
aI1
aI2
aI1
aI1
aI1
aI2
aa(lp152
I1
aI2
aI2
aI1
aI1
aI1
aI0
aI0
aI1
aI0
aI2
aI2
aI2
aI0
aI2
aI2
aI2
aa(lp153
I0
aI1
aI2
aI2
aI2
aI1
aI2
aI2
aI2
aI0
aI1
aI1
aI0
aI1
aI2
aI0
aI0
aa(lp154
I0
aI2
aI1
aI0
aI0
aI1
aI2
aI2
aI1
aI2
aI2
aI2
aI0
aI1
aI1
aI0
aI1
aa(lp155
I1
aI0
aI1
aI1
aI2
aI0
aI0
aI1
aI2
aI2
aI2
aI1
aI2
aI2
aI0
aI0
aI1
aa(lp156
I0
aI0
aI2
aI2
aI2
aI1
aI2
aI1
aI1
aI0
aI2
aI2
aI0
aI1
aI2
aI1
aI0
aa(lp157
I1
aI0
aI1
aI1
aI0
aI0
aI1
aI1
aI0
aI1
aI1
aI2
aI1
aI2
aI2
aI1
aI1
aa(lp158
I1
aI1
aI1
aI1
aI0
aI0
aI1
aI0
aI1
aI0
aI0
aI2
aI1
aI1
aI1
aI2
aI1
aa(lp159
I0
aI0
aI1
aI2
aI2
aI0
aI2
aI0
aI1
aI1
aI1
aI0
aI2
aI2
aI1
aI2
aI0
aa(lp160
I2
aI0
aI0
aI0
aI0
aI2
aI2
aI2
aI1
aI1
aI0
aI2
aI0
aI0
aI1
aI2
aI1
aa(lp161
I0
aI2
aI1
aI2
aI0
aI2
aI0
aI2
aI0
aI1
aI1
aI2
aI1
aI2
aI2
aI2
aI2
aa(lp162
I0
aI2
aI0
aI0
aI1
aI0
aI2
aI0
aI0
aI0
aI0
aI1
aI0
aI0
aI0
aI1
aI1
aa(lp163
I2
aI2
aI2
aI0
aI2
aI1
aI0
aI0
aI2
aI0
aI1
aI2
aI0
aI2
aI1
aI2
aI2
aa(lp164
I0
aI0
aI2
aI0
aI1
aI1
aI1
aI2
aI1
aI0
aI1
aI2
aI1
aI0
aI2
aI0
aI0
aa(lp165
I1
aI2
aI0
aI1
aI1
aI0
aI1
aI1
aI0
aI2
aI1
aI1
aI1
aI2
aI2
aI1
aI1
aa(lp166
I2
aI1
aI1
aI0
aI2
aI0
aI2
aI2
aI2
aI2
aI1
aI2
aI1
aI0
aI2
aI2
aI1
aa(lp167
I1
aI1
aI1
aI2
aI0
aI2
aI2
aI2
aI0
aI2
aI2
aI2
aI0
aI1
aI2
aI0
aI1
aa(lp168
I0
aI2
aI0
aI0
aI2
aI2
aI1
aI1
aI2
aI2
aI2
aI2
aI1
aI2
aI2
aI2
aI0
aa(lp169
I1
aI1
aI0
aI0
aI1
aI1
aI1
aI1
aI0
aI0
aI0
aI1
aI1
aI2
aI0
aI0
aI0
aa(lp170
I2
aI1
aI2
aI2
aI1
aI1
aI2
aI1
aI1
aI1
aI0
aI1
aI1
aI2
aI0
aI2
aI1
aa(lp171
I1
aI1
aI1
aI0
aI0
aI1
aI1
aI2
aI2
aI1
aI2
aI1
aI2
aI2
aI0
aI2
aI0
aa(lp172
I1
aI2
aI0
aI0
aI0
aI2
aI2
aI2
aI1
aI1
aI0
aI1
aI1
aI0
aI0
aI1
aI2
aa(lp173
I1
aI1
aI0
aI0
aI1
aI1
aI0
aI0
aI0
aI1
aI0
aI1
aI0
aI0
aI1
aI2
aI0
aa(lp174
I0
aI1
aI0
aI2
aI0
aI1
aI2
aI1
aI0
aI1
aI1
aI1
aI1
aI0
aI2
aI0
aI0
aa(lp175
I2
aI2
aI2
aI0
aI0
aI0
aI0
aI1
aI2
aI2
aI0
aI2
aI2
aI1
aI2
aI1
aI1
aa(lp176
I0
aI0
aI0
aI1
aI0
aI0
aI2
aI0
aI2
aI0
aI2
aI1
aI1
aI2
aI0
aI1
aI0
aa(lp177
I1
aI1
aI0
aI1
aI0
aI0
aI0
aI1
aI1
aI0
aI2
aI0
aI0
aI0
aI0
aI2
aI0
aa(lp178
I2
aI1
aI2
aI1
aI1
aI2
aI0
aI2
aI0
aI0
aI1
aI0
aI1
aI2
aI0
aI1
aI2
aa(lp179
I2
aI0
aI0
aI2
aI2
aI2
aI0
aI1
aI0
aI1
aI2
aI0
aI1
aI2
aI1
aI0
aI2
aa(lp180
I2
aI0
aI1
aI1
aI2
aI1
aI0
aI0
aI0
aI1
aI2
aI2
aI2
aI2
aI0
aI1
aI2
aa(lp181
I2
aI0
aI2
aI2
aI2
aI0
aI1
aI0
aI2
aI2
aI1
aI1
aI1
aI2
aI2
aI2
aI0
aa(lp182
I0
aI1
aI0
aI2
aI2
aI1
aI2
aI2
aI1
aI2
aI1
aI2
aI1
aI1
aI2
aI0
aI1
aa(lp183
I0
aI2
aI1
aI0
aI1
aI2
aI0
aI1
aI1
aI1
aI1
aI0
aI0
aI2
aI0
aI1
aI2
aa(lp184
I0
aI0
aI1
aI2
aI0
aI1
aI1
aI2
aI1
aI0
aI2
aI2
aI0
aI2
aI2
aI0
aI1
aa(lp185
I2
aI2
aI0
aI0
aI2
aI2
aI1
aI1
aI1
aI1
aI2
aI1
aI0
aI2
aI0
aI0
aI1
aa(lp186
I1
aI0
aI2
aI0
aI1
aI0
aI1
aI1
aI0
aI1
aI1
aI1
aI2
aI0
aI2
aI1
aI1
aa(lp187
I1
aI2
aI1
aI2
aI0
aI0
aI2
aI1
aI2
aI2
aI0
aI0
aI2
aI0
aI1
aI0
aI0
aa(lp188
I1
aI2
aI0
aI2
aI1
aI2
aI2
aI1
aI1
aI1
aI1
aI0
aI2
aI1
aI0
aI0
aI0
aa(lp189
I1
aI0
aI2
aI1
aI0
aI0
aI1
aI1
aI1
aI1
aI2
aI2
aI0
aI1
aI1
aI1
aI1
aa(lp190
I2
aI2
aI1
aI2
aI0
aI1
aI1
aI0
aI2
aI0
aI2
aI2
aI0
aI2
aI0
aI2
aI2
aa(lp191
I0
aI1
aI2
aI2
aI2
aI1
aI1
aI0
aI1
aI2
aI2
aI0
aI0
aI0
aI2
aI0
aI2
aa(lp192
I2
aI0
aI0
aI2
aI2
aI2
aI1
aI1
aI0
aI2
aI2
aI1
aI0
aI0
aI0
aI0
aI1
aa(lp193
I1
aI0
aI1
aI1
aI0
aI0
aI0
aI0
aI1
aI1
aI0
aI1
aI0
aI1
aI1
aI0
aI0
aa(lp194
I0
aI1
aI0
aI1
aI0
aI1
aI0
aI2
aI2
aI2
aI1
aI0
aI1
aI2
aI1
aI0
aI1
aa(lp195
I0
aI0
aI2
aI2
aI0
aI1
aI0
aI0
aI0
aI2
aI1
aI0
aI0
aI1
aI2
aI1
aI2
aa(lp196
I1
aI2
aI1
aI1
aI1
aI1
aI2
aI0
aI2
aI1
aI0
aI1
aI2
aI1
aI2
aI2
aI2
aa(lp197
I2
aI2
aI1
aI0
aI1
aI0
aI1
aI1
aI1
aI2
aI0
aI2
aI1
aI2
aI2
aI0
aI2
aa(lp198
I2
aI2
aI1
aI2
aI1
aI2
aI2
aI0
aI1
aI2
aI1
aI0
aI0
aI1
aI2
aI2
aI2
aa(lp199
I0
aI0
aI1
aI1
aI1
aI2
aI1
aI0
aI1
aI0
aI2
aI0
aI0
aI1
aI2
aI1
aI0
aa(lp200
I2
aI0
aI1
aI2
aI0
aI1
aI2
aI0
aI0
aI0
aI2
aI0
aI1
aI1
aI0
aI1
aI1
aa(lp201
I2
aI2
aI0
aI0
aI1
aI1
aI2
aI0
aI0
aI0
aI0
aI0
aI1
aI0
aI2
aI2
aI1
aa(lp202
I1
aI2
aI1
aI1
aI2
aI0
aI0
aI0
aI1
aI1
aI0
aI2
aI2
aI0
aI0
aI0
aI0
aa(lp203
I2
aI2
aI2
aI2
aI0
aI2
aI2
aI2
aI1
aI0
aI2
aI0
aI0
aI1
aI1
aI2
aI0
aa(lp204
I1
aI0
aI0
aI2
aI2
aI2
aI2
aI0
aI0
aI0
aI1
aI1
aI2
aI1
aI0
aI1
aI0
aa(lp205
I0
aI0
aI1
aI2
aI0
aI2
aI0
aI2
aI0
aI1
aI0
aI0
aI1
aI1
aI2
aI0
aI2
aa(lp206
I1
aI0
aI2
aI0
aI0
aI2
aI2
aI1
aI2
aI0
aI1
aI0
aI2
aI0
aI2
aI0
aI1
aa(lp207
I0
aI2
aI2
aI2
aI1
aI1
aI2
aI1
aI2
aI0
aI1
aI2
aI2
aI2
aI0
aI2
aI2
aa(lp208
I1
aI0
aI2
aI2
aI1
aI2
aI2
aI2
aI0
aI1
aI2
aI2
aI2
aI2
aI2
aI1
aI0
aa(lp209
I1
aI2
aI2
aI2
aI2
aI1
aI2
aI0
aI2
aI1
aI0
aI2
aI2
aI2
aI0
aI2
aI2
aa(lp210
I0
aI0
aI2
aI1
aI1
aI2
aI1
aI2
aI0
aI1
aI2
aI1
aI0
aI1
aI2
aI1
aI1
aa(lp211
I1
aI0
aI0
aI0
aI0
aI2
aI0
aI2
aI2
aI1
aI0
aI1
aI1
aI0
aI0
aI0
aI2
aa(lp212
I2
aI2
aI1
aI2
aI1
aI0
aI2
aI1
aI2
aI0
aI0
aI0
aI1
aI2
aI2
aI2
aI0
aa(lp213
I1
aI0
aI1
aI0
aI2
aI2
aI2
aI2
aI2
aI2
aI1
aI1
aI0
aI0
aI2
aI2
aI2
aa(lp214
I2
aI2
aI1
aI0
aI1
aI2
aI0
aI1
aI2
aI1
aI2
aI2
aI1
aI1
aI0
aI1
aI1
aa(lp215
I2
aI0
aI0
aI1
aI0
aI0
aI2
aI1
aI0
aI0
aI1
aI2
aI0
aI2
aI1
aI2
aI1
aa(lp216
I1
aI0
aI1
aI0
aI1
aI0
aI1
aI0
aI2
aI0
aI0
aI1
aI2
aI0
aI0
aI0
aI2
aa(lp217
I2
aI2
aI1
aI1
aI0
aI0
aI2
aI2
aI1
aI2
aI0
aI2
aI1
aI1
aI1
aI1
aI0
aa(lp218
I1
aI2
aI0
aI0
aI2
aI2
aI0
aI2
aI0
aI1
aI0
aI1
aI2
aI0
aI0
aI1
aI1
aa(lp219
I0
aI0
aI0
aI1
aI1
aI2
aI2
aI0
aI2
aI1
aI2
aI2
aI2
aI2
aI0
aI1
aI2
aa(lp220
I1
aI2
aI0
aI1
aI0
aI0
aI1
aI1
aI1
aI0
aI1
aI0
aI0
aI2
aI2
aI2
aI1
aa(lp221
I1
aI2
aI0
aI1
aI2
aI2
aI2
aI1
aI0
aI1
aI1
aI0
aI1
aI2
aI1
aI1
aI1
aa(lp222
I0
aI0
aI1
aI0
aI2
aI2
aI2
aI1
aI2
aI0
aI0
aI2
aI1
aI0
aI0
aI0
aI2
aa(lp223
I2
aI0
aI2
aI1
aI2
aI0
aI0
aI1
aI1
aI0
aI0
aI0
aI2
aI0
aI1
aI0
aI1
aa(lp224
I0
aI2
aI0
aI1
aI2
aI0
aI1
aI1
aI2
aI2
aI0
aI1
aI1
aI2
aI2
aI2
aI2
aa(lp225
I1
aI2
aI1
aI1
aI0
aI1
aI0
aI0
aI1
aI0
aI0
aI2
aI0
aI1
aI1
aI2
aI0
aa(lp226
I1
aI0
aI0
aI0
aI0
aI0
aI0
aI0
aI1
aI1
aI1
aI2
aI1
aI1
aI2
aI1
aI2
aa(lp227
I1
aI2
aI0
aI2
aI2
aI1
aI2
aI2
aI1
aI2
aI2
aI1
aI2
aI2
aI2
aI0
aI1
aa(lp228
I0
aI0
aI2
aI2
aI2
aI0
aI2
aI1
aI0
aI2
aI2
aI0
aI0
aI1
aI0
aI1
aI0
aa(lp229
I0
aI1
aI0
aI2
aI0
aI0
aI2
aI0
aI1
aI0
aI2
aI2
aI0
aI1
aI1
aI1
aI2
aa(lp230
I2
aI0
aI0
aI2
aI1
aI2
aI2
aI2
aI1
aI1
aI1
aI1
aI1
aI2
aI2
aI0
aI0
aa(lp231
I2
aI2
aI1
aI0
aI0
aI0
aI0
aI1
aI2
aI0
aI2
aI0
aI1
aI1
aI0
aI2
aI1
aa(lp232
I2
aI1
aI1
aI2
aI1
aI2
aI1
aI2
aI0
aI2
aI2
aI2
aI1
aI0
aI1
aI0
aI0
aa(lp233
I0
aI2
aI2
aI1
aI2
aI2
aI0
aI0
aI2
aI1
aI2
aI2
aI1
aI2
aI2
aI0
aI2
aa(lp234
I1
aI0
aI0
aI2
aI1
aI0
aI0
aI0
aI0
aI0
aI1
aI0
aI0
aI1
aI0
aI0
aI1
aa(lp235
I1
aI1
aI2
aI1
aI0
aI0
aI1
aI2
aI2
aI2
aI1
aI2
aI1
aI1
aI2
aI1
aI2
aa(lp236
I2
aI2
aI2
aI2
aI0
aI1
aI2
aI1
aI2
aI2
aI2
aI1
aI0
aI1
aI0
aI2
aI0
aa(lp237
I1
aI1
aI1
aI0
aI0
aI1
aI0
aI0
aI0
aI1
aI2
aI0
aI0
aI0
aI1
aI0
aI2
aa(lp238
I2
aI2
aI2
aI2
aI2
aI2
aI1
aI1
aI0
aI2
aI1
aI2
aI1
aI0
aI2
aI1
aI0
aa(lp239
I1
aI0
aI1
aI2
aI2
aI2
aI1
aI0
aI2
aI2
aI1
aI2
aI0
aI0
aI0
aI2
aI2
aa(lp240
I0
aI0
aI0
aI1
aI0
aI0
aI0
aI2
aI0
aI2
aI0
aI0
aI0
aI2
aI0
aI0
aI0
aa(lp241
I0
aI0
aI0
aI2
aI0
aI1
aI0
aI1
aI2
aI2
aI1
aI2
aI0
aI1
aI0
aI0
aI0
aa(lp242
I2
aI2
aI1
aI0
aI1
aI2
aI0
aI2
aI2
aI0
aI2
aI2
aI1
aI1
aI0
aI1
aI1
aa(lp243
I1
aI1
aI1
aI2
aI2
aI1
aI2
aI2
aI0
aI2
aI2
aI0
aI2
aI0
aI2
aI1
aI0
aa(lp244
I0
aI2
aI0
aI2
aI0
aI0
aI0
aI1
aI1
aI0
aI1
aI0
aI0
aI1
aI0
aI1
aI2
aa(lp245
I1
aI2
aI2
aI2
aI0
aI0
aI0
aI1
aI1
aI2
aI2
aI2
aI1
aI1
aI2
aI0
aI1
aa(lp246
I2
aI2
aI0
aI2
aI1
aI2
aI2
aI1
aI2
aI0
aI1
aI1
aI2
aI2
aI2
aI1
aI0
aa(lp247
I2
aI2
aI1
aI0
aI2
aI0
aI1
aI2
aI0
aI2
aI2
aI2
aI2
aI2
aI0
aI1
aI2
aa(lp248
I0
aI0
aI2
aI2
aI1
aI1
aI0
aI0
aI2
aI1
aI2
aI0
aI2
aI2
aI1
aI2
aI2
aa(lp249
I0
aI2
aI2
aI2
aI2
aI2
aI2
aI2
aI1
aI1
aI0
aI0
aI1
aI2
aI1
aI1
aI2
aa(lp250
I2
aI2
aI1
aI2
aI1
aI2
aI1
aI1
aI2
aI2
aI1
aI1
aI2
aI1
aI1
aI2
aI0
aa(lp251
I1
aI1
aI0
aI1
aI0
aI0
aI0
aI0
aI0
aI2
aI0
aI1
aI1
aI2
aI0
aI1
aI1
aa(lp252
I2
aI1
aI0
aI1
aI0
aI1
aI2
aI0
aI1
aI2
aI0
aI1
aI0
aI0
aI1
aI0
aI0
aa(lp253
I0
aI1
aI2
aI2
aI0
aI2
aI1
aI2
aI2
aI2
aI2
aI0
aI0
aI1
aI2
aI2
aI1
aa(lp254
I1
aI1
aI2
aI1
aI1
aI0
aI0
aI2
aI2
aI1
aI1
aI1
aI2
aI1
aI2
aI2
aI1
aa(lp255
I2
aI0
aI0
aI2
aI2
aI2
aI1
aI1
aI2
aI0
aI1
aI2
aI2
aI2
aI0
aI0
aI2
aa(lp256
I2
aI0
aI2
aI2
aI0
aI0
aI1
aI2
aI0
aI0
aI0
aI0
aI1
aI0
aI0
aI0
aI0
aa(lp257
I0
aI1
aI1
aI0
aI1
aI2
aI2
aI0
aI1
aI1
aI0
aI0
aI0
aI1
aI1
aI0
aI1
aa(lp258
I2
aI0
aI1
aI0
aI0
aI0
aI0
aI0
aI0
aI0
aI2
aI1
aI1
aI0
aI2
aI1
aI1
aa(lp259
I2
aI1
aI2
aI1
aI2
aI1
aI1
aI0
aI1
aI2
aI1
aI1
aI1
aI2
aI2
aI0
aI1
aa(lp260
I2
aI0
aI2
aI2
aI2
aI1
aI2
aI0
aI2
aI2
aI1
aI1
aI0
aI0
aI1
aI2
aI2
aa(lp261
I0
aI2
aI2
aI2
aI1
aI1
aI1
aI2
aI2
aI1
aI2
aI2
aI1
aI1
aI1
aI2
aI0
aa(lp262
I1
aI1
aI2
aI2
aI2
aI2
aI1
aI2
aI2
aI2
aI0
aI1
aI2
aI1
aI2
aI2
aI0
aa(lp263
I1
aI0
aI0
aI2
aI0
aI1
aI0
aI1
aI1
aI1
aI0
aI2
aI0
aI0
aI0
aI2
aI0
aa(lp264
I2
aI0
aI1
aI0
aI1
aI1
aI1
aI2
aI1
aI0
aI0
aI0
aI1
aI0
aI0
aI2
aI0
aa(lp265
I2
aI0
aI1
aI2
aI1
aI0
aI0
aI1
aI2
aI2
aI2
aI1
aI2
aI2
aI1
aI2
aI1
aa(lp266
I1
aI1
aI1
aI2
aI2
aI2
aI2
aI1
aI0
aI1
aI2
aI2
aI2
aI2
aI2
aI0
aI1
aa(lp267
I0
aI2
aI2
aI2
aI2
aI1
aI2
aI1
aI1
aI1
aI0
aI2
aI2
aI2
aI2
aI2
aI0
aa(lp268
I0
aI2
aI0
aI0
aI0
aI1
aI0
aI2
aI1
aI2
aI2
aI0
aI0
aI0
aI0
aI0
aI1
aa(lp269
I2
aI1
aI2
aI2
aI0
aI2
aI2
aI2
aI1
aI0
aI2
aI1
aI0
aI1
aI1
aI0
aI2
aa(lp270
I0
aI2
aI2
aI2
aI2
aI1
aI1
aI1
aI1
aI2
aI0
aI2
aI2
aI0
aI0
aI1
aI2
aa(lp271
I0
aI2
aI0
aI0
aI0
aI0
aI1
aI1
aI0
aI0
aI0
aI2
aI0
aI2
aI2
aI0
aI1
aa(lp272
I0
aI0
aI1
aI1
aI0
aI0
aI1
aI0
aI2
aI0
aI0
aI1
aI0
aI1
aI1
aI2
aI1
aa(lp273
I2
aI1
aI1
aI1
aI2
aI1
aI1
aI1
aI2
aI2
aI2
aI0
aI1
aI2
aI0
aI2
aI0
aa(lp274
I1
aI2
aI2
aI1
aI1
aI1
aI2
aI0
aI2
aI1
aI1
aI2
aI2
aI1
aI2
aI2
aI0
aa(lp275
I0
aI0
aI2
aI0
aI1
aI0
aI0
aI1
aI1
aI1
aI0
aI0
aI0
aI2
aI0
aI2
aI0
aa(lp276
I0
aI0
aI2
aI0
aI0
aI0
aI0
aI0
aI1
aI2
aI1
aI2
aI1
aI0
aI0
aI2
aI0
aa(lp277
I0
aI2
aI2
aI1
aI1
aI1
aI2
aI1
aI0
aI0
aI0
aI0
aI1
aI0
aI0
aI1
aI0
aa(lp278
I0
aI0
aI0
aI0
aI2
aI1
aI0
aI0
aI0
aI0
aI2
aI0
aI0
aI0
aI2
aI1
aI0
aa(lp279
I2
aI2
aI2
aI2
aI0
aI2
aI1
aI0
aI1
aI2
aI0
aI2
aI1
aI1
aI2
aI1
aI2
aa(lp280
I2
aI2
aI2
aI1
aI2
aI1
aI2
aI0
aI0
aI1
aI0
aI1
aI2
aI1
aI1
aI2
aI2
aa(lp281
I2
aI0
aI1
aI2
aI0
aI0
aI1
aI2
aI2
aI2
aI2
aI1
aI2
aI2
aI2
aI1
aI2
aa(lp282
I2
aI2
aI2
aI2
aI2
aI1
aI2
aI0
aI0
aI2
aI2
aI2
aI0
aI0
aI2
aI2
aI2
aa(lp283
I1
aI1
aI1
aI1
aI0
aI1
aI2
aI0
aI0
aI0
aI0
aI0
aI1
aI2
aI0
aI0
aI2
aa(lp284
I2
aI2
aI1
aI1
aI2
aI2
aI1
aI2
aI1
aI0
aI1
aI1
aI2
aI1
aI1
aI1
aI1
aa(lp285
I1
aI1
aI0
aI0
aI0
aI1
aI0
aI1
aI0
aI0
aI1
aI0
aI2
aI2
aI2
aI1
aI0
aa(lp286
I2
aI0
aI2
aI1
aI1
aI0
aI0
aI0
aI2
aI0
aI0
aI0
aI1
aI0
aI1
aI1
aI1
aa(lp287
I1
aI0
aI1
aI0
aI0
aI0
aI0
aI0
aI0
aI0
aI1
aI1
aI0
aI0
aI2
aI2
aI2
aa(lp288
I2
aI1
aI2
aI2
aI2
aI0
aI1
aI2
aI2
aI0
aI1
aI1
aI2
aI0
aI2
aI2
aI2
aa(lp289
I2
aI1
aI0
aI2
aI2
aI1
aI1
aI2
aI2
aI1
aI2
aI2
aI0
aI1
aI2
aI1
aI1
aa(lp290
I2
aI1
aI1
aI2
aI1
aI0
aI1
aI0
aI2
aI2
aI2
aI2
aI1
aI0
aI2
aI1
aI2
aa(lp291
I0
aI2
aI1
aI2
aI1
aI1
aI2
aI1
aI2
aI2
aI1
aI1
aI0
aI2
aI1
aI1
aI2
aa(lp292
I1
aI1
aI1
aI2
aI0
aI2
aI1
aI2
aI1
aI2
aI2
aI2
aI1
aI1
aI1
aI0
aI2
aa(lp293
I0
aI2
aI1
aI2
aI2
aI2
aI2
aI0
aI2
aI2
aI1
aI1
aI1
aI2
aI2
aI2
aI1
aa(lp294
I2
aI0
aI0
aI1
aI2
aI2
aI2
aI2
aI1
aI2
aI0
aI1
aI0
aI2
aI2
aI2
aI2
aa(lp295
I2
aI2
aI2
aI0
aI2
aI2
aI1
aI1
aI1
aI1
aI2
aI0
aI1
aI2
aI2
aI2
aI0
aa(lp296
I1
aI2
aI2
aI2
aI1
aI1
aI1
aI2
aI2
aI1
aI1
aI1
aI2
aI2
aI1
aI2
aI2
aa(lp297
I2
aI1
aI2
aI2
aI2
aI2
aI2
aI2
aI2
aI0
aI0
aI1
aI2
aI1
aI0
aI0
aI2
aa(lp298
I0
aI2
aI0
aI1
aI0
aI1
aI1
aI0
aI0
aI2
aI1
aI0
aI0
aI1
aI0
aI0
aI0
aa(lp299
I0
aI1
aI1
aI0
aI2
aI0
aI0
aI1
aI0
aI1
aI1
aI0
aI0
aI0
aI0
aI2
aI1
aa(lp300
I1
aI2
aI2
aI0
aI2
aI2
aI2
aI0
aI1
aI2
aI2
aI2
aI1
aI1
aI0
aI2
aI2
aa(lp301
I0
aI2
aI0
aI0
aI0
aI0
aI1
aI1
aI2
aI1
aI0
aI1
aI1
aI0
aI1
aI0
aI0
aa(lp302
I0
aI0
aI0
aI0
aI0
aI0
aI0
aI0
aI2
aI2
aI0
aI0
aI0
aI1
aI1
aI1
aI2
aa(lp303
I2
aI2
aI1
aI2
aI2
aI0
aI2
aI2
aI0
aI2
aI0
aI1
aI2
aI2
aI2
aI1
aI2
aa(lp304
I2
aI0
aI0
aI2
aI2
aI0
aI1
aI0
aI0
aI0
aI1
aI0
aI0
aI1
aI1
aI0
aI0
aa(lp305
I0
aI0
aI0
aI1
aI1
aI0
aI2
aI2
aI1
aI2
aI0
aI0
aI0
aI0
aI0
aI0
aI2
aa(lp306
I2
aI2
aI1
aI2
aI0
aI2
aI2
aI2
aI2
aI0
aI2
aI2
aI2
aI2
aI0
aI0
aI0
aa(lp307
I0
aI1
aI1
aI2
aI0
aI0
aI1
aI0
aI1
aI1
aI0
aI0
aI0
aI2
aI0
aI2
aI0
aa(lp308
I1
aI0
aI0
aI0
aI0
aI1
aI0
aI1
aI1
aI0
aI1
aI1
aI0
aI0
aI2
aI0
aI0
aa(lp309
I0
aI2
aI1
aI0
aI2
aI2
aI2
aI2
aI1
aI2
aI0
aI1
aI1
aI1
aI2
aI2
aI2
aa(lp310
I1
aI0
aI1
aI2
aI0
aI2
aI1
aI0
aI0
aI1
aI0
aI1
aI0
aI1
aI0
aI1
aI0
aa(lp311
I1
aI1
aI2
aI2
aI2
aI0
aI2
aI1
aI2
aI2
aI2
aI2
aI2
aI2
aI0
aI1
aI0
aa(lp312
I0
aI0
aI0
aI0
aI1
aI1
aI1
aI2
aI0
aI0
aI2
aI1
aI0
aI1
aI0
aI2
aI0
aa(lp313
I0
aI0
aI2
aI0
aI0
aI0
aI0
aI2
aI2
aI1
aI0
aI1
aI1
aI0
aI2
aI0
aI0
aa(lp314
I2
aI2
aI2
aI1
aI2
aI2
aI1
aI0
aI1
aI1
aI0
aI1
aI1
aI2
aI2
aI1
aI2
aa(lp315
I2
aI2
aI1
aI0
aI0
aI1
aI2
aI1
aI1
aI1
aI0
aI2
aI2
aI2
aI2
aI2
aI2
aa(lp316
I2
aI2
aI2
aI1
aI2
aI0
aI2
aI0
aI2
aI2
aI1
aI0
aI2
aI2
aI2
aI1
aI1
aa(lp317
I0
aI0
aI1
aI0
aI1
aI1
aI1
aI1
aI2
aI0
aI0
aI0
aI0
aI1
aI0
aI1
aI1
aa(lp318
I2
aI2
aI2
aI1
aI2
aI2
aI2
aI2
aI1
aI1
aI1
aI0
aI1
aI0
aI1
aI2
aI1
aa(lp319
I0
aI1
aI0
aI0
aI0
aI0
aI2
aI1
aI0
aI2
aI1
aI0
aI2
aI0
aI1
aI0
aI0
aa(lp320
I1
aI1
aI2
aI2
aI0
aI0
aI2
aI2
aI2
aI2
aI1
aI2
aI2
aI2
aI1
aI2
aI0
aa(lp321
I1
aI1
aI0
aI0
aI1
aI1
aI0
aI2
aI0
aI1
aI0
aI2
aI0
aI0
aI0
aI0
aI2
aa(lp322
I2
aI1
aI0
aI0
aI0
aI0
aI0
aI1
aI0
aI1
aI1
aI0
aI2
aI0
aI1
aI1
aI1
aa(lp323
I0
aI1
aI0
aI1
aI0
aI1
aI1
aI2
aI1
aI2
aI0
aI0
aI1
aI0
aI0
aI0
aI1
aa(lp324
I0
aI2
aI1
aI1
aI0
aI1
aI0
aI0
aI0
aI0
aI0
aI0
aI0
aI2
aI1
aI1
aI0
aa(lp325
I2
aI0
aI1
aI0
aI0
aI2
aI1
aI1
aI0
aI0
aI0
aI1
aI0
aI0
aI1
aI1
aI1
aa(lp326
I0
aI1
aI2
aI0
aI0
aI0
aI0
aI1
aI1
aI0
aI0
aI0
aI0
aI1
aI0
aI0
aI0
aa(lp327
I0
aI2
aI1
aI0
aI0
aI0
aI0
aI0
aI2
aI1
aI2
aI0
aI0
aI1
aI0
aI0
aI1
aa(lp328
I2
aI2
aI2
aI2
aI1
aI2
aI2
aI2
aI1
aI0
aI2
aI1
aI2
aI0
aI2
aI0
aI2
aa(lp329
I1
aI0
aI0
aI0
aI0
aI1
aI0
aI0
aI0
aI1
aI2
aI1
aI0
aI2
aI0
aI1
aI1
aa(lp330
I0
aI2
aI1
aI1
aI2
aI1
aI2
aI2
aI1
aI2
aI2
aI2
aI2
aI1
aI1
aI1
aI1
aa(lp331
I1
aI0
aI0
aI1
aI0
aI0
aI2
aI0
aI2
aI0
aI0
aI2
aI0
aI0
aI0
aI1
aI0
aa(lp332
I2
aI2
aI2
aI1
aI0
aI1
aI2
aI2
aI1
aI2
aI0
aI0
aI2
aI2
aI2
aI2
aI1
aa(lp333
I2
aI2
aI2
aI0
aI2
aI0
aI2
aI2
aI0
aI2
aI2
aI2
aI2
aI2
aI0
aI0
aI2
aa(lp334
I2
aI0
aI2
aI2
aI1
aI2
aI2
aI2
aI1
aI0
aI2
aI2
aI1
aI0
aI1
aI2
aI2
aa(lp335
I2
aI0
aI0
aI2
aI0
aI2
aI0
aI1
aI1
aI0
aI0
aI0
aI1
aI1
aI0
aI0
aI0
aa(lp336
I1
aI1
aI2
aI2
aI2
aI1
aI1
aI1
aI1
aI1
aI2
aI2
aI2
aI2
aI2
aI0
aI1
aa(lp337
I1
aI2
aI2
aI0
aI1
aI1
aI1
aI2
aI2
aI2
aI1
aI2
aI1
aI2
aI2
aI2
aI2
aa(lp338
I0
aI0
aI0
aI1
aI0
aI2
aI2
aI0
aI0
aI0
aI1
aI0
aI1
aI0
aI0
aI1
aI2
aa(lp339
I0
aI1
aI1
aI1
aI0
aI1
aI2
aI1
aI1
aI0
aI0
aI2
aI0
aI0
aI0
aI0
aI0
aa(lp340
I2
aI0
aI0
aI1
aI0
aI0
aI0
aI1
aI0
aI2
aI1
aI0
aI0
aI1
aI0
aI0
aI1
aa(lp341
I0
aI2
aI1
aI1
aI2
aI2
aI2
aI1
aI1
aI1
aI2
aI2
aI0
aI2
aI1
aI2
aI2
aa(lp342
I2
aI1
aI1
aI2
aI2
aI2
aI2
aI2
aI2
aI2
aI1
aI2
aI0
aI2
aI1
aI2
aI2
aa(lp343
I1
aI2
aI0
aI1
aI2
aI1
aI2
aI2
aI1
aI2
aI2
aI2
aI2
aI0
aI2
aI1
aI1
aa(lp344
I0
aI1
aI0
aI0
aI1
aI2
aI1
aI0
aI1
aI0
aI0
aI0
aI0
aI1
aI2
aI0
aI0
aa(lp345
I0
aI0
aI0
aI0
aI0
aI2
aI2
aI1
aI0
aI0
aI0
aI0
aI0
aI2
aI0
aI1
aI0
aa(lp346
I1
aI0
aI1
aI0
aI0
aI1
aI0
aI1
aI1
aI1
aI0
aI1
aI0
aI2
aI0
aI1
aI0
aa(lp347
I0
aI1
aI0
aI0
aI1
aI0
aI0
aI1
aI1
aI2
aI1
aI0
aI0
aI0
aI1
aI0
aI0
aa(lp348
I0
aI0
aI0
aI0
aI0
aI0
aI2
aI1
aI1
aI0
aI1
aI1
aI0
aI1
aI0
aI1
aI0
aa(lp349
I2
aI1
aI0
aI1
aI2
aI2
aI2
aI2
aI1
aI2
aI2
aI1
aI1
aI2
aI2
aI1
aI1
aa(lp350
I0
aI1
aI0
aI0
aI0
aI2
aI0
aI2
aI0
aI1
aI2
aI1
aI0
aI0
aI0
aI0
aI1
aa(lp351
I0
aI0
aI2
aI0
aI1
aI0
aI0
aI1
aI0
aI0
aI2
aI0
aI1
aI2
aI0
aI1
aI0
aa(lp352
I0
aI1
aI0
aI0
aI0
aI0
aI1
aI2
aI0
aI0
aI0
aI1
aI2
aI0
aI1
aI1
aI1
aa(lp353
I0
aI1
aI0
aI1
aI2
aI2
aI0
aI0
aI0
aI1
aI0
aI0
aI0
aI1
aI1
aI0
aI0
aa(lp354
I0
aI2
aI1
aI1
aI2
aI0
aI1
aI1
aI0
aI0
aI0
aI0
aI0
aI0
aI0
aI0
aI0
aa(lp355
I0
aI1
aI0
aI0
aI0
aI0
aI1
aI0
aI0
aI2
aI0
aI1
aI1
aI1
aI0
aI2
aI0
aa(lp356
I1
aI0
aI0
aI2
aI2
aI2
aI1
aI1
aI2
aI2
aI2
aI2
aI1
aI2
aI2
aI2
aI1
aa(lp357
I0
aI1
aI0
aI0
aI1
aI2
aI0
aI0
aI1
aI0
aI0
aI0
aI1
aI0
aI2
aI1
aI0
aa(lp358
I1
aI2
aI2
aI1
aI2
aI2
aI1
aI2
aI1
aI1
aI2
aI1
aI0
aI1
aI2
aI2
aI2
aa(lp359
I2
aI1
aI2
aI0
aI2
aI2
aI2
aI1
aI1
aI2
aI2
aI2
aI0
aI2
aI2
aI2
aI0
aa(lp360
I2
aI2
aI1
aI2
aI2
aI2
aI2
aI1
aI0
aI1
aI1
aI1
aI2
aI2
aI0
aI2
aI2
aa(lp361
I1
aI1
aI0
aI0
aI2
aI0
aI0
aI0
aI2
aI2
aI0
aI0
aI0
aI0
aI1
aI0
aI0
aa(lp362
I0
aI0
aI1
aI1
aI0
aI1
aI1
aI0
aI2
aI1
aI0
aI0
aI0
aI2
aI0
aI0
aI0
aa(lp363
I2
aI0
aI0
aI0
aI0
aI0
aI0
aI1
aI1
aI1
aI2
aI0
aI0
aI0
aI1
aI0
aI1
aa(lp364
I0
aI0
aI1
aI0
aI0
aI0
aI1
aI0
aI1
aI0
aI1
aI2
aI0
aI1
aI0
aI0
aI1
aa(lp365
I1
aI2
aI2
aI2
aI2
aI2
aI0
aI1
aI1
aI1
aI2
aI2
aI0
aI2
aI2
aI2
aI2
aa(lp366
I2
aI1
aI2
aI2
aI1
aI1
aI2
aI2
aI1
aI0
aI1
aI1
aI2
aI2
aI2
aI1
aI2
aa(lp367
I0
aI1
aI0
aI0
aI0
aI0
aI0
aI2
aI1
aI1
aI0
aI0
aI2
aI0
aI0
aI1
aI0
aa(lp368
I2
aI2
aI0
aI2
aI0
aI2
aI1
aI2
aI2
aI2
aI2
aI1
aI2
aI2
aI0
aI2
aI1
aa(lp369
I1
aI1
aI2
aI1
aI1
aI2
aI2
aI2
aI1
aI1
aI1
aI2
aI2
aI2
aI1
aI1
aI2
aa(lp370
I0
aI0
aI0
aI0
aI0
aI0
aI2
aI2
aI1
aI2
aI0
aI0
aI0
aI0
aI0
aI1
aI1
aa(lp371
I0
aI2
aI2
aI1
aI2
aI2
aI2
aI1
aI2
aI0
aI0
aI2
aI1
aI2
aI2
aI2
aI2
aa(lp372
I1
aI2
aI2
aI1
aI0
aI1
aI2
aI2
aI0
aI2
aI1
aI2
aI2
aI1
aI2
aI2
aI2
aa(lp373
I0
aI0
aI1
aI0
aI1
aI2
aI1
aI0
aI0
aI0
aI0
aI0
aI1
aI0
aI0
aI0
aI1
aa(lp374
I1
aI1
aI1
aI2
aI2
aI2
aI2
aI1
aI1
aI1
aI0
aI2
aI2
aI1
aI2
aI2
aI2
aa(lp375
I2
aI1
aI2
aI2
aI2
aI2
aI2
aI2
aI2
aI2
aI2
aI0
aI2
aI2
aI0
aI1
aI2
aa(lp376
I0
aI1
aI0
aI1
aI1
aI0
aI1
aI2
aI0
aI0
aI0
aI0
aI0
aI1
aI0
aI0
aI1
aa(lp377
I0
aI1
aI1
aI0
aI2
aI0
aI2
aI0
aI1
aI0
aI0
aI1
aI0
aI0
aI0
aI1
aI0
aa(lp378
I2
aI1
aI2
aI2
aI2
aI2
aI2
aI1
aI2
aI1
aI2
aI0
aI1
aI0
aI2
aI2
aI1
aa(lp379
I2
aI2
aI1
aI2
aI1
aI2
aI1
aI1
aI2
aI2
aI2
aI2
aI2
aI2
aI1
aI2
aI2
aa(lp380
I2
aI1
aI2
aI2
aI2
aI2
aI0
aI2
aI2
aI2
aI2
aI1
aI2
aI2
aI0
aI1
aI0
aa(lp381
I0
aI2
aI0
aI0
aI1
aI0
aI0
aI0
aI1
aI0
aI0
aI1
aI2
aI1
aI0
aI0
aI0
aa(lp382
I0
aI2
aI0
aI0
aI1
aI0
aI0
aI0
aI0
aI1
aI1
aI0
aI1
aI0
aI0
aI1
aI0
aa(lp383
I2
aI2
aI1
aI2
aI2
aI1
aI2
aI2
aI2
aI0
aI2
aI1
aI2
aI2
aI2
aI1
aI0
aa(lp384
I1
aI0
aI2
aI0
aI0
aI0
aI0
aI0
aI0
aI0
aI0
aI1
aI1
aI2
aI0
aI0
aI2
aa(lp385
I0
aI1
aI0
aI2
aI0
aI0
aI1
aI0
aI0
aI1
aI0
aI0
aI0
aI1
aI0
aI0
aI0
aa(lp386
I0
aI2
aI0
aI0
aI0
aI0
aI1
aI0
aI0
aI0
aI1
aI0
aI0
aI2
aI1
aI0
aI1
aa(lp387
I0
aI0
aI1
aI0
aI0
aI0
aI0
aI0
aI1
aI0
aI2
aI0
aI1
aI0
aI2
aI0
aI2
aa(lp388
I2
aI2
aI2
aI2
aI2
aI2
aI1
aI1
aI2
aI2
aI2
aI2
aI2
aI2
aI1
aI2
aI0
aa(lp389
I0
aI2
aI1
aI1
aI0
aI0
aI2
aI0
aI0
aI1
aI0
aI0
aI0
aI0
aI0
aI1
aI0
aa(lp390
I2
aI1
aI2
aI2
aI2
aI0
aI2
aI1
aI2
aI2
aI2
aI2
aI0
aI1
aI2
aI2
aI2
aa(lp391
I0
aI1
aI0
aI0
aI1
aI0
aI0
aI2
aI1
aI0
aI0
aI0
aI0
aI1
aI1
aI0
aI1
aa(lp392
I2
aI1
aI1
aI2
aI2
aI2
aI2
aI1
aI2
aI1
aI1
aI2
aI2
aI2
aI0
aI2
aI1
aa(lp393
I2
aI2
aI2
aI1
aI1
aI0
aI0
aI2
aI2
aI1
aI1
aI2
aI2
aI2
aI2
aI2
aI2
aa(lp394
I0
aI0
aI0
aI0
aI1
aI1
aI1
aI1
aI2
aI0
aI0
aI0
aI0
aI0
aI0
aI1
aI0
aa(lp395
I2
aI2
aI1
aI1
aI1
aI2
aI2
aI2
aI1
aI2
aI1
aI2
aI2
aI2
aI2
aI0
aI1
aa(lp396
I0
aI0
aI2
aI0
aI0
aI0
aI0
aI0
aI0
aI0
aI1
aI1
aI2
aI0
aI0
aI0
aI1
aa(lp397
I2
aI2
aI2
aI0
aI1
aI2
aI2
aI2
aI2
aI2
aI1
aI1
aI2
aI2
aI1
aI1
aI2
aa(lp398
I0
aI1
aI0
aI1
aI0
aI1
aI1
aI0
aI0
aI0
aI0
aI0
aI1
aI2
aI1
aI0
aI0
aa(lp399
I2
aI1
aI2
aI0
aI0
aI2
aI1
aI2
aI2
aI2
aI1
aI2
aI2
aI1
aI2
aI2
aI2
aa(lp400
I0
aI1
aI2
aI1
aI2
aI1
aI2
aI1
aI2
aI2
aI2
aI2
aI2
aI2
aI2
aI1
aI2
aa(lp401
I1
aI1
aI0
aI0
aI1
aI0
aI0
aI0
aI0
aI0
aI0
aI0
aI0
aI0
aI1
aI0
aI2
aa(lp402
I0
aI1
aI0
aI0
aI1
aI1
aI0
aI0
aI0
aI1
aI0
aI0
aI0
aI0
aI0
aI0
aI1
aa(lp403
I2
aI2
aI1
aI2
aI2
aI2
aI2
aI2
aI2
aI2
aI0
aI1
aI1
aI1
aI2
aI1
aI1
aa(lp404
I0
aI1
aI0
aI0
aI0
aI0
aI1
aI0
aI0
aI2
aI1
aI1
aI0
aI0
aI1
aI0
aI1
aa(lp405
I0
aI0
aI1
aI0
aI0
aI2
aI0
aI0
aI0
aI0
aI2
aI0
aI2
aI0
aI0
aI0
aI0
aa(lp406
I1
aI0
aI0
aI2
aI0
aI0
aI0
aI0
aI2
aI1
aI0
aI1
aI0
aI0
aI1
aI0
aI0
aa(lp407
I0
aI1
aI0
aI0
aI0
aI0
aI1
aI0
aI0
aI1
aI0
aI2
aI1
aI0
aI2
aI0
aI0
aa(lp408
I1
aI1
aI0
aI1
aI2
aI0
aI0
aI0
aI0
aI2
aI0
aI0
aI0
aI0
aI0
aI0
aI0
aa(lp409
I1
aI1
aI0
aI0
aI0
aI2
aI0
aI0
aI1
aI0
aI2
aI1
aI0
aI0
aI0
aI0
aI0
aa(lp410
I2
aI2
aI2
aI2
aI1
aI1
aI2
aI0
aI1
aI2
aI2
aI1
aI2
aI2
aI0
aI2
aI2
aa(lp411
I0
aI0
aI0
aI1
aI0
aI0
aI0
aI0
aI0
aI0
aI0
aI0
aI2
aI0
aI2
aI1
aI2
aa(lp412
I2
aI2
aI2
aI2
aI0
aI2
aI0
aI2
aI1
aI2
aI0
aI2
aI2
aI1
aI2
aI2
aI2
aa(lp413
I2
aI0
aI2
aI2
aI2
aI1
aI2
aI1
aI2
aI2
aI2
aI0
aI2
aI2
aI2
aI1
aI1
aa(lp414
I1
aI2
aI2
aI1
aI2
aI0
aI2
aI2
aI1
aI1
aI2
aI2
aI2
aI1
aI2
aI2
aI1
aa(lp415
I2
aI1
aI2
aI1
aI1
aI2
aI1
aI1
aI1
aI1
aI2
aI2
aI2
aI1
aI2
aI2
aI2
aa(lp416
I0
aI2
aI1
aI0
aI0
aI0
aI0
aI0
aI0
aI0
aI0
aI0
aI1
aI1
aI1
aI0
aI0
aa(lp417
I0
aI0
aI1
aI0
aI1
aI0
aI1
aI0
aI0
aI2
aI0
aI0
aI0
aI0
aI0
aI0
aI1
aa(lp418
I1
aI2
aI0
aI0
aI0
aI0
aI0
aI2
aI0
aI0
aI0
aI0
aI1
aI0
aI1
aI0
aI0
aa(lp419
I2
aI2
aI2
aI1
aI2
aI2
aI0
aI0
aI2
aI2
aI2
aI1
aI2
aI1
aI1
aI2
aI2
aa(lp420
I2
aI1
aI2
aI2
aI2
aI1
aI2
aI2
aI2
aI2
aI1
aI1
aI0
aI0
aI2
aI2
aI2
aa(lp421
I0
aI0
aI0
aI1
aI0
aI0
aI0
aI0
aI1
aI1
aI1
aI0
aI0
aI0
aI2
aI1
aI0
aa(lp422
I2
aI1
aI2
aI1
aI2
aI2
aI2
aI1
aI2
aI0
aI0
aI2
aI2
aI2
aI2
aI1
aI2
aa(lp423
I2
aI2
aI2
aI1
aI1
aI1
aI2
aI2
aI2
aI2
aI1
aI1
aI2
aI1
aI2
aI1
aI1
aa(lp424
I2
aI1
aI1
aI2
aI2
aI2
aI1
aI2
aI1
aI0
aI2
aI1
aI2
aI2
aI1
aI2
aI2
aa(lp425
I0
aI0
aI1
aI1
aI0
aI2
aI0
aI0
aI0
aI0
aI1
aI0
aI1
aI0
aI0
aI1
aI0
aa(lp426
I2
aI1
aI2
aI2
aI2
aI2
aI2
aI2
aI2
aI2
aI1
aI0
aI1
aI2
aI2
aI1
aI0
aa(lp427
I0
aI0
aI0
aI1
aI0
aI0
aI1
aI0
aI1
aI0
aI0
aI0
aI0
aI2
aI1
aI1
aI0
aa(lp428
I0
aI0
aI1
aI0
aI1
aI0
aI0
aI0
aI0
aI1
aI0
aI0
aI0
aI0
aI0
aI2
aI0
aa(lp429
I0
aI0
aI0
aI1
aI0
aI0
aI0
aI0
aI0
aI2
aI1
aI0
aI0
aI2
aI1
aI0
aI0
aa(lp430
I0
aI1
aI0
aI0
aI0
aI1
aI2
aI0
aI0
aI0
aI1
aI0
aI0
aI0
aI1
aI1
aI0
aa(lp431
I0
aI1
aI1
aI2
aI0
aI0
aI0
aI0
aI1
aI0
aI0
aI0
aI1
aI0
aI0
aI0
aI0
aa(lp432
I0
aI0
aI1
aI0
aI0
aI0
aI1
aI0
aI0
aI0
aI0
aI0
aI1
aI0
aI0
aI0
aI1
aa(lp433
I0
aI0
aI2
aI0
aI0
aI0
aI1
aI0
aI0
aI1
aI1
aI0
aI0
aI0
aI2
aI0
aI0
aa(lp434
I0
aI0
aI1
aI0
aI0
aI1
aI0
aI1
aI1
aI0
aI0
aI0
aI0
aI0
aI1
aI1
aI0
aa(lp435
I1
aI2
aI2
aI2
aI2
aI2
aI1
aI2
aI2
aI2
aI1
aI2
aI0
aI2
aI2
aI1
aI1
aa(lp436
I0
aI0
aI2
aI0
aI1
aI0
aI1
aI0
aI0
aI0
aI0
aI0
aI1
aI0
aI0
aI0
aI2
aa(lp437
I1
aI1
aI2
aI2
aI2
aI2
aI2
aI2
aI2
aI2
aI0
aI2
aI2
aI2
aI2
aI1
aI0
aa(lp438
I0
aI0
aI0
aI0
aI2
aI0
aI1
aI1
aI1
aI0
aI0
aI0
aI0
aI0
aI0
aI1
aI0
aa(lp439
I1
aI1
aI2
aI2
aI0
aI1
aI2
aI2
aI1
aI2
aI2
aI2
aI2
aI2
aI2
aI2
aI1
aa(lp440
I2
aI2
aI2
aI1
aI2
aI1
aI2
aI1
aI0
aI2
aI2
aI2
aI2
aI0
aI2
aI2
aI2
aa(lp441
I0
aI0
aI0
aI0
aI0
aI0
aI1
aI0
aI1
aI0
aI1
aI2
aI1
aI0
aI0
aI0
aI1
aa(lp442
I1
aI2
aI0
aI2
aI1
aI2
aI1
aI1
aI2
aI1
aI2
aI2
aI2
aI2
aI2
aI2
aI2
aa(lp443
I2
aI1
aI2
aI2
aI1
aI2
aI2
aI2
aI0
aI1
aI2
aI0
aI2
aI2
aI2
aI2
aI2
aa(lp444
I2
aI2
aI1
aI2
aI2
aI1
aI1
aI2
aI2
aI2
aI1
aI2
aI2
aI2
aI1
aI1
aI2
aa(lp445
I0
aI1
aI0
aI0
aI0
aI0
aI2
aI0
aI1
aI1
aI0
aI2
aI0
aI0
aI0
aI0
aI0
aa(lp446
I2
aI0
aI0
aI0
aI0
aI0
aI0
aI0
aI0
aI1
aI0
aI0
aI1
aI0
aI0
aI0
aI0
aa(lp447
I2
aI2
aI2
aI2
aI2
aI2
aI2
aI0
aI1
aI2
aI1
aI1
aI2
aI1
aI2
aI2
aI2
aa(lp448
I1
aI2
aI2
aI2
aI2
aI2
aI2
aI2
aI2
aI1
aI0
aI1
aI2
aI2
aI2
aI1
aI1
aa(lp449
I2
aI2
aI2
aI2
aI0
aI1
aI2
aI2
aI2
aI1
aI2
aI2
aI0
aI1
aI2
aI2
aI2
aa(lp450
I0
aI2
aI0
aI0
aI0
aI0
aI0
aI1
aI0
aI0
aI1
aI0
aI1
aI0
aI0
aI0
aI0
aa(lp451
I1
aI0
aI2
aI2
aI1
aI2
aI2
aI2
aI1
aI2
aI2
aI2
aI2
aI1
aI1
aI2
aI2
aa(lp452
I2
aI2
aI1
aI2
aI2
aI0
aI2
aI1
aI2
aI2
aI1
aI2
aI2
aI2
aI1
aI2
aI1
aa(lp453
I1
aI1
aI0
aI2
aI1
aI2
aI1
aI2
aI2
aI2
aI2
aI2
aI2
aI2
aI2
aI2
aI1
aa(lp454
I0
aI1
aI1
aI0
aI0
aI1
aI0
aI0
aI0
aI1
aI1
aI0
aI0
aI0
aI0
aI1
aI0
aa(lp455
I0
aI0
aI0
aI0
aI0
aI1
aI1
aI0
aI0
aI0
aI0
aI1
aI1
aI1
aI0
aI0
aI2
aa(lp456
I0
aI2
aI1
aI0
aI2
aI2
aI2
aI2
aI1
aI2
aI2
aI2
aI2
aI2
aI1
aI2
aI2
aa(lp457
I2
aI0
aI0
aI0
aI1
aI0
aI0
aI0
aI0
aI0
aI0
aI1
aI0
aI0
aI0
aI2
aI1
aa(lp458
I1
aI1
aI0
aI0
aI1
aI0
aI1
aI0
aI0
aI0
aI0
aI0
aI1
aI0
aI1
aI1
aI0
aa(lp459
I2
aI2
aI2
aI2
aI2
aI2
aI2
aI1
aI1
aI2
aI1
aI1
aI2
aI1
aI2
aI2
aI0
aa(lp460
I2
aI1
aI2
aI0
aI2
aI2
aI2
aI2
aI2
aI1
aI1
aI1
aI2
aI2
aI2
aI2
aI1
aa(lp461
I0
aI2
aI1
aI0
aI0
aI0
aI0
aI0
aI1
aI0
aI0
aI1
aI0
aI0
aI1
aI0
aI0
aa(lp462
I2
aI2
aI0
aI2
aI1
aI2
aI2
aI2
aI1
aI1
aI2
aI2
aI2
aI2
aI2
aI2
aI0
aa(lp463
I2
aI0
aI2
aI0
aI2
aI2
aI2
aI1
aI2
aI2
aI1
aI2
aI2
aI2
aI1
aI2
aI2
aa(lp464
I2
aI1
aI0
aI2
aI1
aI2
aI2
aI2
aI1
aI2
aI2
aI2
aI2
aI1
aI2
aI1
aI2
aa(lp465
I2
aI1
aI1
aI2
aI1
aI2
aI2
aI0
aI2
aI2
aI2
aI2
aI2
aI2
aI1
aI2
aI1
aa(lp466
I2
aI2
aI2
aI2
aI2
aI2
aI2
aI2
aI1
aI2
aI2
aI2
aI2
aI1
aI1
aI1
aI2
aa(lp467
I1
aI2
aI0
aI0
aI1
aI0
aI0
aI0
aI0
aI0
aI0
aI0
aI0
aI0
aI0
aI1
aI0
aa(lp468
I1
aI2
aI2
aI2
aI2
aI2
aI2
aI2
aI2
aI2
aI1
aI0
aI2
aI1
aI2
aI2
aI2
aa(lp469
I2
aI2
aI1
aI2
aI2
aI2
aI2
aI1
aI1
aI1
aI1
aI1
aI2
aI2
aI2
aI2
aI2
aa(lp470
I0
aI0
aI1
aI0
aI0
aI0
aI0
aI1
aI2
aI0
aI0
aI0
aI0
aI0
aI0
aI0
aI1
aa(lp471
I1
aI0
aI0
aI1
aI0
aI0
aI0
aI0
aI0
aI0
aI0
aI0
aI0
aI0
aI1
aI2
aI0
aa(lp472
I0
aI0
aI0
aI0
aI2
aI1
aI0
aI0
aI0
aI1
aI0
aI0
aI0
aI0
aI1
aI0
aI1
aa(lp473
I1
aI0
aI0
aI0
aI0
aI0
aI0
aI1
aI0
aI0
aI0
aI1
aI0
aI0
aI0
aI2
aI0
aa(lp474
I0
aI2
aI2
aI1
aI2
aI2
aI1
aI2
aI2
aI2
aI2
aI2
aI2
aI1
aI2
aI2
aI2
aa(lp475
I1
aI2
aI2
aI2
aI2
aI1
aI1
aI2
aI1
aI2
aI2
aI2
aI1
aI2
aI1
aI2
aI2
aa(lp476
I1
aI1
aI0
aI0
aI1
aI0
aI0
aI1
aI0
aI0
aI0
aI1
aI0
aI0
aI0
aI0
aI1
aa(lp477
I0
aI0
aI0
aI1
aI0
aI2
aI1
aI1
aI0
aI0
aI1
aI0
aI0
aI0
aI0
aI0
aI0
aa(lp478
I2
aI2
aI2
aI2
aI1
aI1
aI1
aI2
aI1
aI2
aI2
aI2
aI2
aI2
aI2
aI1
aI2
aa(lp479
I1
aI2
aI2
aI2
aI2
aI2
aI1
aI1
aI0
aI2
aI2
aI2
aI1
aI2
aI2
aI2
aI2
aa(lp480
I0
aI0
aI0
aI1
aI0
aI0
aI1
aI0
aI0
aI0
aI0
aI0
aI0
aI0
aI0
aI2
aI0
aa(lp481
I2
aI2
aI2
aI1
aI2
aI0
aI2
aI2
aI1
aI2
aI2
aI2
aI1
aI2
aI2
aI2
aI1
aa(lp482
I2
aI1
aI2
aI2
aI2
aI2
aI2
aI2
aI2
aI2
aI0
aI1
aI2
aI1
aI1
aI2
aI2
aa(lp483
I2
aI0
aI2
aI0
aI0
aI0
aI0
aI0
aI0
aI0
aI0
aI0
aI0
aI1
aI0
aI1
aI0
aa(lp484
I0
aI0
aI0
aI1
aI0
aI1
aI0
aI0
aI0
aI0
aI1
aI0
aI0
aI1
aI0
aI0
aI1
aa(lp485
I2
aI2
aI1
aI2
aI2
aI2
aI2
aI2
aI2
aI2
aI1
aI2
aI2
aI2
aI2
aI0
aI2
aa(lp486
I0
aI2
aI2
aI1
aI2
aI2
aI1
aI2
aI2
aI2
aI2
aI1
aI2
aI2
aI2
aI2
aI2
aa(lp487
I2
aI2
aI2
aI2
aI0
aI2
aI2
aI2
aI2
aI1
aI1
aI2
aI2
aI1
aI2
aI2
aI1
aa(lp488
I0
aI1
aI0
aI0
aI0
aI0
aI0
aI0
aI2
aI0
aI0
aI2
aI1
aI0
aI0
aI0
aI0
aa(lp489
I1
aI1
aI0
aI0
aI1
aI0
aI0
aI0
aI0
aI0
aI0
aI1
aI1
aI0
aI0
aI1
aI0
aa(lp490
I2
aI2
aI0
aI1
aI2
aI2
aI2
aI2
aI2
aI2
aI2
aI2
aI2
aI1
aI2
aI1
aI2
aa(lp491
I1
aI0
aI0
aI2
aI0
aI0
aI0
aI0
aI1
aI1
aI0
aI0
aI0
aI0
aI0
aI0
aI1
aa(lp492
I0
aI0
aI0
aI1
aI0
aI1
aI0
aI1
aI0
aI0
aI1
aI0
aI1
aI0
aI0
aI0
aI1
aa(lp493
I0
aI0
aI1
aI0
aI1
aI0
aI0
aI0
aI2
aI0
aI0
aI1
aI1
aI0
aI0
aI0
aI0
aa(lp494
I0
aI0
aI0
aI1
aI1
aI0
aI1
aI0
aI1
aI0
aI0
aI0
aI1
aI0
aI0
aI0
aI1
aa(lp495
I2
aI2
aI2
aI2
aI2
aI0
aI2
aI1
aI2
aI2
aI1
aI2
aI2
aI2
aI2
aI1
aI2
aa(lp496
I1
aI0
aI0
aI0
aI0
aI0
aI0
aI0
aI0
aI1
aI0
aI0
aI0
aI0
aI0
aI0
aI1
aa(lp497
I2
aI1
aI1
aI2
aI2
aI0
aI2
aI1
aI2
aI2
aI2
aI1
aI2
aI2
aI2
aI2
aI2
aa(lp498
I2
aI0
aI0
aI0
aI0
aI0
aI1
aI1
aI0
aI0
aI0
aI1
aI1
aI0
aI0
aI0
aI0
aa(lp499
I0
aI2
aI2
aI1
aI2
aI0
aI2
aI2
aI2
aI2
aI2
aI2
aI2
aI2
aI2
aI2
aI1
aa(lp500
I2
aI2
aI1
aI2
aI2
aI2
aI2
aI0
aI2
aI1
aI2
aI2
aI2
aI2
aI1
aI1
aI2
aa(lp501
I2
aI2
aI2
aI2
aI2
aI2
aI2
aI2
aI1
aI2
aI2
aI2
aI1
aI2
aI2
aI0
aI0
aa.